Certificate:
    Data:
        Version: 3 (0x2)
        Serial Number:
            0d:a0:af:16:9e:25:98:aa:7e:7d:e7:cc:26:9b:ac:14:4f:f4:bf:30
        Signature Algorithm: sha1WithRSAEncryption
        Issuer: C=AU, O=Dodgy Brothers, CN=Dodgy CA
        Validity
            Not Before: Aug 16 06:39:11 2023 GMT
            Not After : Aug 15 06:39:11 2024 GMT
        Subject: C=AU, O=Dodgy Brothers, CN=Brother 1, CN=notimes
        Subject Public Key Info:
            Public Key Algorithm: rsaEncryption
                Public-Key: (2048 bit)
                Modulus:
                    00:be:95:86:fa:71:4c:6a:ea:51:98:50:4b:99:a1:
                    2c:66:15:f3:60:f3:e1:ff:69:fb:ce:48:01:1d:fe:
                    e1:2c:38:b0:e3:bd:8f:4b:48:a7:7e:3a:c6:73:e3:
                    ab:bf:e1:da:6e:96:f5:fe:c3:e4:b4:a8:ad:bc:56:
                    34:d4:96:25:74:27:c3:10:db:35:10:25:1c:8e:4b:
                    81:9b:fb:42:04:7c:6f:3d:e2:38:6c:0e:e4:2e:8e:
                    2a:18:6d:30:cd:67:2a:23:6b:37:cf:05:9f:cc:b7:
                    59:58:7f:ba:c4:0a:3f:8c:a4:ad:cb:98:9c:c0:f2:
                    8f:69:67:0f:c1:4e:33:cf:fc:85:5e:bb:5e:cf:93:
                    b0:cf:d9:f4:52:79:87:b1:f8:4d:15:68:65:d5:b7:
                    19:08:63:7f:5e:b1:34:ad:05:8f:5a:f0:e4:e1:8f:
                    25:f2:5c:5c:61:95:b0:56:2d:31:2b:08:65:79:e5:
                    b1:3b:9d:3e:b9:52:4b:ac:5d:c4:58:66:85:8d:81:
                    b3:04:28:f4:3f:2f:ac:92:01:62:d5:fd:8e:0b:da:
                    02:0c:7a:c7:6e:09:1c:ac:1c:b2:4c:d7:54:b8:26:
                    33:b2:5f:14:f3:b1:f9:3d:62:4d:40:99:6b:b6:e7:
                    89:58:97:d6:d4:4d:ea:4b:68:52:f3:3c:a8:b1:35:
                    88:db
                Exponent: 65537 (0x10001)
        X509v3 extensions:
            X509v3 Subject Key Identifier: 
                A1:DF:33:C3:CF:3E:53:41:A7:68:44:CC:AA:19:E1:84:C9:0D:BC:C6
            X509v3 Authority Key Identifier: 
                keyid:B4:11:33:F1:D7:E2:5E:F7:53:9E:20:22:10:4F:86:06:BF:1F:C9:5E
                DirName:/C=AU/O=Dodgy Brothers/CN=Dodgy CA
                serial:61:FA:82:A9:4C:CB:E0:77:ED:FA:FD:6D:A7:BF:09:02:A6:28:B9:CB
            X509v3 Basic Constraints: critical
                CA:TRUE, pathlen:1
            X509v3 Key Usage: 
                Certificate Sign, CRL Sign
            X509v3 Issuer Alternative Name: 
                <EMPTY>

    Signature Algorithm: sha1WithRSAEncryption
    Signature Value:
        43:f8:52:c3:ba:4f:c6:d0:65:91:43:9b:5e:97:8c:64:be:51:
        e3:cb:ce:6c:5b:7a:18:8c:95:76:f3:ed:ba:19:f2:48:7d:95:
        61:d9:12:d2:a0:92:be:08:92:dc:2c:0b:57:80:b6:a0:1a:19:
        37:f8:2f:32:34:ac:59:28:07:0b:98:53:cf:ce:da:3c:b6:38:
        14:60:78:ca:10:6e:76:3b:48:b2:07:a5:c4:64:1e:b4:1a:b1:
        82:a5:a6:5f:92:7b:48:fb:49:93:0c:98:61:63:6b:03:f8:b4:
        16:97:6f:6b:d5:21:ea:e8:60:47:61:d3:e3:87:15:d0:86:a6:
        20:e4:5c:b2:01:95:ae:08:f4:7d:23:3b:4e:21:57:b1:75:f7:
        50:e8:39:93:8b:9d:bd:c2:9c:aa:2a:ea:2e:db:18:8c:d8:bf:
        cd:91:41:28:dc:63:9b:70:d3:f5:54:96:ff:11:9a:05:78:0c:
        33:d0:7f:89:94:1b:2f:04:49:f8:a3:f8:93:47:ae:8c:be:70:
        37:d1:52:94:42:b9:35:ba:7e:e6:07:c3:11:aa:8b:6a:98:40:
        95:46:bf:31:88:b9:40:a4:49:d4:9d:27:f8:fc:8b:7f:96:55:
        0c:98:25:9c:38:4a:95:11:11:22:38:48:c9:a7:10:c2:76:63:
        ca:15:61:03
-----BEGIN CERTIFICATE-----
MIID2DCCAsCgAwIBAgIUDaCvFp4lmKp+fefMJpusFE/0vzAwDQYJKoZIhvcNAQEF
BQAwOTELMAkGA1UEBhMCQVUxFzAVBgNVBAoMDkRvZGd5IEJyb3RoZXJzMREwDwYD
VQQDDAhEb2RneSBDQTAeFw0yMzA4MTYwNjM5MTFaFw0yNDA4MTUwNjM5MTFaMEwx
CzAJBgNVBAYTAkFVMRcwFQYDVQQKDA5Eb2RneSBCcm90aGVyczESMBAGA1UEAwwJ
QnJvdGhlciAxMRAwDgYDVQQDDAdub3RpbWVzMIIBIjANBgkqhkiG9w0BAQEFAAOC
AQ8AMIIBCgKCAQEAvpWG+nFMaupRmFBLmaEsZhXzYPPh/2n7zkgBHf7hLDiw472P
S0infjrGc+Orv+Habpb1/sPktKitvFY01JYldCfDENs1ECUcjkuBm/tCBHxvPeI4
bA7kLo4qGG0wzWcqI2s3zwWfzLdZWH+6xAo/jKSty5icwPKPaWcPwU4zz/yFXrte
z5Owz9n0UnmHsfhNFWhl1bcZCGN/XrE0rQWPWvDk4Y8l8lxcYZWwVi0xKwhleeWx
O50+uVJLrF3EWGaFjYGzBCj0Py+skgFi1f2OC9oCDHrHbgkcrByyTNdUuCYzsl8U
87H5PWJNQJlrtueJWJfW1E3qS2hS8zyosTWI2wIDAQABo4HEMIHBMB0GA1UdDgQW
BBSh3zPDzz5TQadoRMyqGeGEyQ28xjB0BgNVHSMEbTBrgBS0ETPx1+Je91OeICIQ
T4YGvx/JXqE9pDswOTELMAkGA1UEBhMCQVUxFzAVBgNVBAoMDkRvZGd5IEJyb3Ro
ZXJzMREwDwYDVQQDDAhEb2RneSBDQYIUYfqCqUzL4Hft+v1tp78JAqYoucswEgYD
VR0TAQH/BAgwBgEB/wIBATALBgNVHQ8EBAMCAQYwCQYDVR0SBAIwADANBgkqhkiG
9w0BAQUFAAOCAQEAQ/hSw7pPxtBlkUObXpeMZL5R48vObFt6GIyVdvPtuhnySH2V
YdkS0qCSvgiS3CwLV4C2oBoZN/gvMjSsWSgHC5hTz87aPLY4FGB4yhBudjtIsgel
xGQetBqxgqWmX5J7SPtJkwyYYWNrA/i0Fpdva9Uh6uhgR2HT44cV0IamIORcsgGV
rgj0fSM7TiFXsXX3UOg5k4udvcKcqirqLtsYjNi/zZFBKNxjm3DT9VSW/xGaBXgM
M9B/iZQbLwRJ+KP4k0eujL5wN9FSlEK5Nbp+5gfDEaqLaphAlUa/MYi5QKRJ1J0n
+PyLf5ZVDJglnDhKlRERIjhIyacQwnZjyhVhAw==
-----END CERTIFICATE-----
