Certificate:
    Data:
        Version: 3 (0x2)
        Serial Number:
            0d:a0:af:16:9e:25:98:aa:7e:7d:e7:cc:26:9b:ac:14:4f:f4:bf:36
        Signature Algorithm: sha1WithRSAEncryption
        Issuer: C=AU, O=Dodgy Brothers, CN=Dodgy CA
        Validity
            Not Before: Aug 16 06:39:14 2023 GMT
            Not After : Aug 15 06:39:14 2024 GMT
        Subject: C=AU, O=Dodgy Brothers, CN=Brother 1, CN=nextupdate_generalizedtime
        Subject Public Key Info:
            Public Key Algorithm: rsaEncryption
                Public-Key: (2048 bit)
                Modulus:
                    00:be:95:86:fa:71:4c:6a:ea:51:98:50:4b:99:a1:
                    2c:66:15:f3:60:f3:e1:ff:69:fb:ce:48:01:1d:fe:
                    e1:2c:38:b0:e3:bd:8f:4b:48:a7:7e:3a:c6:73:e3:
                    ab:bf:e1:da:6e:96:f5:fe:c3:e4:b4:a8:ad:bc:56:
                    34:d4:96:25:74:27:c3:10:db:35:10:25:1c:8e:4b:
                    81:9b:fb:42:04:7c:6f:3d:e2:38:6c:0e:e4:2e:8e:
                    2a:18:6d:30:cd:67:2a:23:6b:37:cf:05:9f:cc:b7:
                    59:58:7f:ba:c4:0a:3f:8c:a4:ad:cb:98:9c:c0:f2:
                    8f:69:67:0f:c1:4e:33:cf:fc:85:5e:bb:5e:cf:93:
                    b0:cf:d9:f4:52:79:87:b1:f8:4d:15:68:65:d5:b7:
                    19:08:63:7f:5e:b1:34:ad:05:8f:5a:f0:e4:e1:8f:
                    25:f2:5c:5c:61:95:b0:56:2d:31:2b:08:65:79:e5:
                    b1:3b:9d:3e:b9:52:4b:ac:5d:c4:58:66:85:8d:81:
                    b3:04:28:f4:3f:2f:ac:92:01:62:d5:fd:8e:0b:da:
                    02:0c:7a:c7:6e:09:1c:ac:1c:b2:4c:d7:54:b8:26:
                    33:b2:5f:14:f3:b1:f9:3d:62:4d:40:99:6b:b6:e7:
                    89:58:97:d6:d4:4d:ea:4b:68:52:f3:3c:a8:b1:35:
                    88:db
                Exponent: 65537 (0x10001)
        X509v3 extensions:
            X509v3 Subject Key Identifier: 
                A1:DF:33:C3:CF:3E:53:41:A7:68:44:CC:AA:19:E1:84:C9:0D:BC:C6
            X509v3 Authority Key Identifier: 
                keyid:B4:11:33:F1:D7:E2:5E:F7:53:9E:20:22:10:4F:86:06:BF:1F:C9:5E
                DirName:/C=AU/O=Dodgy Brothers/CN=Dodgy CA
                serial:61:FA:82:A9:4C:CB:E0:77:ED:FA:FD:6D:A7:BF:09:02:A6:28:B9:CB
            X509v3 Basic Constraints: critical
                CA:TRUE, pathlen:1
            X509v3 Key Usage: 
                Certificate Sign, CRL Sign
            X509v3 Issuer Alternative Name: 
                <EMPTY>

    Signature Algorithm: sha1WithRSAEncryption
    Signature Value:
        1d:94:da:38:45:b5:c4:e1:aa:34:07:cd:1a:34:3c:2e:9b:ef:
        e1:c7:1b:4f:e6:12:9c:21:9c:b0:46:27:86:ac:54:88:21:15:
        6d:46:e8:33:77:e5:79:a8:23:43:cf:51:71:89:e0:51:49:ea:
        7e:44:a8:9b:8b:e5:71:11:71:93:8b:16:dc:70:6e:b9:c7:1a:
        5c:55:7c:06:cb:5b:5a:64:ce:60:13:a3:53:96:42:6d:a2:ce:
        d9:ec:15:7d:b1:c0:13:32:18:75:09:86:b1:97:3a:e1:64:19:
        44:dc:f4:70:9b:a0:7b:08:ff:c1:47:86:86:bb:1c:22:ab:8f:
        a5:ff:0a:b6:c0:2c:45:74:56:5a:77:1d:88:9d:2f:e0:64:3d:
        fa:b2:6c:2f:b2:34:85:c0:52:19:91:77:0c:5b:d1:42:2e:43:
        f7:8c:32:2a:dc:be:06:c5:be:3e:92:6d:9c:cc:75:91:09:1c:
        99:4e:b6:f9:6d:38:b5:5c:67:21:0b:cf:f4:95:26:6e:af:d1:
        89:1e:44:f1:e1:e9:fa:36:3f:66:39:59:3e:35:d9:1d:da:7c:
        03:d6:19:57:d0:b1:e4:58:33:30:55:d6:80:29:c9:fe:1c:f4:
        02:fe:ea:21:0b:0e:7d:4a:1d:ec:63:c4:b3:e2:4e:9c:73:c2:
        e0:57:6a:62
-----BEGIN CERTIFICATE-----
MIID6zCCAtOgAwIBAgIUDaCvFp4lmKp+fefMJpusFE/0vzYwDQYJKoZIhvcNAQEF
BQAwOTELMAkGA1UEBhMCQVUxFzAVBgNVBAoMDkRvZGd5IEJyb3RoZXJzMREwDwYD
VQQDDAhEb2RneSBDQTAeFw0yMzA4MTYwNjM5MTRaFw0yNDA4MTUwNjM5MTRaMF8x
CzAJBgNVBAYTAkFVMRcwFQYDVQQKDA5Eb2RneSBCcm90aGVyczESMBAGA1UEAwwJ
QnJvdGhlciAxMSMwIQYDVQQDDBpuZXh0dXBkYXRlX2dlbmVyYWxpemVkdGltZTCC
ASIwDQYJKoZIhvcNAQEBBQADggEPADCCAQoCggEBAL6VhvpxTGrqUZhQS5mhLGYV
82Dz4f9p+85IAR3+4Sw4sOO9j0tIp346xnPjq7/h2m6W9f7D5LSorbxWNNSWJXQn
wxDbNRAlHI5LgZv7QgR8bz3iOGwO5C6OKhhtMM1nKiNrN88Fn8y3WVh/usQKP4yk
rcuYnMDyj2lnD8FOM8/8hV67Xs+TsM/Z9FJ5h7H4TRVoZdW3GQhjf16xNK0Fj1rw
5OGPJfJcXGGVsFYtMSsIZXnlsTudPrlSS6xdxFhmhY2BswQo9D8vrJIBYtX9jgva
Agx6x24JHKwcskzXVLgmM7JfFPOx+T1iTUCZa7bniViX1tRN6ktoUvM8qLE1iNsC
AwEAAaOBxDCBwTAdBgNVHQ4EFgQUod8zw88+U0GnaETMqhnhhMkNvMYwdAYDVR0j
BG0wa4AUtBEz8dfiXvdTniAiEE+GBr8fyV6hPaQ7MDkxCzAJBgNVBAYTAkFVMRcw
FQYDVQQKDA5Eb2RneSBCcm90aGVyczERMA8GA1UEAwwIRG9kZ3kgQ0GCFGH6gqlM
y+B37fr9bae/CQKmKLnLMBIGA1UdEwEB/wQIMAYBAf8CAQEwCwYDVR0PBAQDAgEG
MAkGA1UdEgQCMAAwDQYJKoZIhvcNAQEFBQADggEBAB2U2jhFtcThqjQHzRo0PC6b
7+HHG0/mEpwhnLBGJ4asVIghFW1G6DN35XmoI0PPUXGJ4FFJ6n5EqJuL5XERcZOL
FtxwbrnHGlxVfAbLW1pkzmATo1OWQm2iztnsFX2xwBMyGHUJhrGXOuFkGUTc9HCb
oHsI/8FHhoa7HCKrj6X/CrbALEV0Vlp3HYidL+BkPfqybC+yNIXAUhmRdwxb0UIu
Q/eMMircvgbFvj6SbZzMdZEJHJlOtvltOLVcZyELz/SVJm6v0YkeRPHh6fo2P2Y5
WT412R3afAPWGVfQseRYMzBV1oApyf4c9AL+6iELDn1KHexjxLPiTpxzwuBXamI=
-----END CERTIFICATE-----
