Certificate:
    Data:
        Version: 3 (0x2)
        Serial Number:
            0d:a0:af:16:9e:25:98:aa:7e:7d:e7:cc:26:9b:ac:14:4f:f4:bf:37
        Signature Algorithm: sha1WithRSAEncryption
        Issuer: C=AU, O=Dodgy Brothers, CN=Dodgy CA
        Validity
            Not Before: Aug 16 06:39:14 2023 GMT
            Not After : Aug 15 06:39:14 2024 GMT
        Subject: C=AU, O=Dodgy Brothers, CN=Brother 1, CN=both_utctime
        Subject Public Key Info:
            Public Key Algorithm: rsaEncryption
                Public-Key: (2048 bit)
                Modulus:
                    00:be:95:86:fa:71:4c:6a:ea:51:98:50:4b:99:a1:
                    2c:66:15:f3:60:f3:e1:ff:69:fb:ce:48:01:1d:fe:
                    e1:2c:38:b0:e3:bd:8f:4b:48:a7:7e:3a:c6:73:e3:
                    ab:bf:e1:da:6e:96:f5:fe:c3:e4:b4:a8:ad:bc:56:
                    34:d4:96:25:74:27:c3:10:db:35:10:25:1c:8e:4b:
                    81:9b:fb:42:04:7c:6f:3d:e2:38:6c:0e:e4:2e:8e:
                    2a:18:6d:30:cd:67:2a:23:6b:37:cf:05:9f:cc:b7:
                    59:58:7f:ba:c4:0a:3f:8c:a4:ad:cb:98:9c:c0:f2:
                    8f:69:67:0f:c1:4e:33:cf:fc:85:5e:bb:5e:cf:93:
                    b0:cf:d9:f4:52:79:87:b1:f8:4d:15:68:65:d5:b7:
                    19:08:63:7f:5e:b1:34:ad:05:8f:5a:f0:e4:e1:8f:
                    25:f2:5c:5c:61:95:b0:56:2d:31:2b:08:65:79:e5:
                    b1:3b:9d:3e:b9:52:4b:ac:5d:c4:58:66:85:8d:81:
                    b3:04:28:f4:3f:2f:ac:92:01:62:d5:fd:8e:0b:da:
                    02:0c:7a:c7:6e:09:1c:ac:1c:b2:4c:d7:54:b8:26:
                    33:b2:5f:14:f3:b1:f9:3d:62:4d:40:99:6b:b6:e7:
                    89:58:97:d6:d4:4d:ea:4b:68:52:f3:3c:a8:b1:35:
                    88:db
                Exponent: 65537 (0x10001)
        X509v3 extensions:
            X509v3 Subject Key Identifier: 
                A1:DF:33:C3:CF:3E:53:41:A7:68:44:CC:AA:19:E1:84:C9:0D:BC:C6
            X509v3 Authority Key Identifier: 
                keyid:B4:11:33:F1:D7:E2:5E:F7:53:9E:20:22:10:4F:86:06:BF:1F:C9:5E
                DirName:/C=AU/O=Dodgy Brothers/CN=Dodgy CA
                serial:61:FA:82:A9:4C:CB:E0:77:ED:FA:FD:6D:A7:BF:09:02:A6:28:B9:CB
            X509v3 Basic Constraints: critical
                CA:TRUE, pathlen:1
            X509v3 Key Usage: 
                Certificate Sign, CRL Sign
            X509v3 Issuer Alternative Name: 
                <EMPTY>

    Signature Algorithm: sha1WithRSAEncryption
    Signature Value:
        8f:85:13:e1:21:41:a3:ca:0a:d0:c1:f5:86:59:55:f7:7b:a0:
        9f:6a:aa:22:d7:c9:8e:fa:68:24:86:87:46:ec:a6:89:cf:45:
        7a:9e:73:dd:a5:40:62:d5:4a:c8:ac:39:3f:9a:e7:d7:80:20:
        8f:2e:d0:1d:e9:17:ba:42:f6:29:27:c9:ad:6e:d0:54:f4:82:
        ea:ec:bb:9a:3b:db:b5:bc:b5:74:27:17:b1:ff:ad:41:e9:75:
        8f:f9:d4:99:3c:68:e4:79:7c:49:06:21:c7:95:13:38:bb:fe:
        a9:60:c4:6c:bd:7c:1e:3e:28:03:e4:50:99:9e:3b:d0:12:0b:
        94:81:d7:b6:0a:a1:22:99:4f:c7:11:01:3c:77:bf:9c:64:59:
        8f:a6:ec:ad:aa:74:0f:99:69:76:17:04:48:80:e3:bc:4c:ba:
        d5:fe:27:c6:ef:84:f3:de:c2:d1:33:74:ef:82:28:c2:ea:27:
        0c:b6:0f:2f:75:cf:87:78:5a:bd:16:d6:1a:d8:74:3c:14:16:
        b8:7f:ab:40:c1:b7:ba:a6:0d:c3:b0:2e:a9:2c:c5:7b:fb:f5:
        64:45:31:10:ee:40:e7:e4:23:6e:3a:98:e4:51:4c:92:4e:e2:
        e2:67:45:51:21:d8:12:13:04:f7:64:26:75:1f:79:de:91:13:
        d4:a5:6d:a5
-----BEGIN CERTIFICATE-----
MIID3TCCAsWgAwIBAgIUDaCvFp4lmKp+fefMJpusFE/0vzcwDQYJKoZIhvcNAQEF
BQAwOTELMAkGA1UEBhMCQVUxFzAVBgNVBAoMDkRvZGd5IEJyb3RoZXJzMREwDwYD
VQQDDAhEb2RneSBDQTAeFw0yMzA4MTYwNjM5MTRaFw0yNDA4MTUwNjM5MTRaMFEx
CzAJBgNVBAYTAkFVMRcwFQYDVQQKDA5Eb2RneSBCcm90aGVyczESMBAGA1UEAwwJ
QnJvdGhlciAxMRUwEwYDVQQDDAxib3RoX3V0Y3RpbWUwggEiMA0GCSqGSIb3DQEB
AQUAA4IBDwAwggEKAoIBAQC+lYb6cUxq6lGYUEuZoSxmFfNg8+H/afvOSAEd/uEs
OLDjvY9LSKd+OsZz46u/4dpulvX+w+S0qK28VjTUliV0J8MQ2zUQJRyOS4Gb+0IE
fG894jhsDuQujioYbTDNZyojazfPBZ/Mt1lYf7rECj+MpK3LmJzA8o9pZw/BTjPP
/IVeu17Pk7DP2fRSeYex+E0VaGXVtxkIY39esTStBY9a8OThjyXyXFxhlbBWLTEr
CGV55bE7nT65UkusXcRYZoWNgbMEKPQ/L6ySAWLV/Y4L2gIMesduCRysHLJM11S4
JjOyXxTzsfk9Yk1AmWu254lYl9bUTepLaFLzPKixNYjbAgMBAAGjgcQwgcEwHQYD
VR0OBBYEFKHfM8PPPlNBp2hEzKoZ4YTJDbzGMHQGA1UdIwRtMGuAFLQRM/HX4l73
U54gIhBPhga/H8leoT2kOzA5MQswCQYDVQQGEwJBVTEXMBUGA1UECgwORG9kZ3kg
QnJvdGhlcnMxETAPBgNVBAMMCERvZGd5IENBghRh+oKpTMvgd+36/W2nvwkCpii5
yzASBgNVHRMBAf8ECDAGAQH/AgEBMAsGA1UdDwQEAwIBBjAJBgNVHRIEAjAAMA0G
CSqGSIb3DQEBBQUAA4IBAQCPhRPhIUGjygrQwfWGWVX3e6Cfaqoi18mO+mgkhodG
7KaJz0V6nnPdpUBi1UrIrDk/mufXgCCPLtAd6Re6QvYpJ8mtbtBU9ILq7LuaO9u1
vLV0Jxex/61B6XWP+dSZPGjkeXxJBiHHlRM4u/6pYMRsvXwePigD5FCZnjvQEguU
gde2CqEimU/HEQE8d7+cZFmPpuytqnQPmWl2FwRIgOO8TLrV/ifG74Tz3sLRM3Tv
gijC6icMtg8vdc+HeFq9FtYa2HQ8FBa4f6tAwbe6pg3DsC6pLMV7+/VkRTEQ7kDn
5CNuOpjkUUySTuLiZ0VRIdgSEwT3ZCZ1H3nekRPUpW2l
-----END CERTIFICATE-----
