Certificate:
    Data:
        Version: 3 (0x2)
        Serial Number:
            0d:a0:af:16:9e:25:98:aa:7e:7d:e7:cc:26:9b:ac:14:4f:f4:bf:38
        Signature Algorithm: sha1WithRSAEncryption
        Issuer: C=AU, O=Dodgy Brothers, CN=Dodgy CA
        Validity
            Not Before: Aug 16 06:39:15 2023 GMT
            Not After : Aug 15 06:39:15 2024 GMT
        Subject: C=AU, O=Dodgy Brothers, CN=Brother 1, CN=both_generalizedtime
        Subject Public Key Info:
            Public Key Algorithm: rsaEncryption
                Public-Key: (2048 bit)
                Modulus:
                    00:be:95:86:fa:71:4c:6a:ea:51:98:50:4b:99:a1:
                    2c:66:15:f3:60:f3:e1:ff:69:fb:ce:48:01:1d:fe:
                    e1:2c:38:b0:e3:bd:8f:4b:48:a7:7e:3a:c6:73:e3:
                    ab:bf:e1:da:6e:96:f5:fe:c3:e4:b4:a8:ad:bc:56:
                    34:d4:96:25:74:27:c3:10:db:35:10:25:1c:8e:4b:
                    81:9b:fb:42:04:7c:6f:3d:e2:38:6c:0e:e4:2e:8e:
                    2a:18:6d:30:cd:67:2a:23:6b:37:cf:05:9f:cc:b7:
                    59:58:7f:ba:c4:0a:3f:8c:a4:ad:cb:98:9c:c0:f2:
                    8f:69:67:0f:c1:4e:33:cf:fc:85:5e:bb:5e:cf:93:
                    b0:cf:d9:f4:52:79:87:b1:f8:4d:15:68:65:d5:b7:
                    19:08:63:7f:5e:b1:34:ad:05:8f:5a:f0:e4:e1:8f:
                    25:f2:5c:5c:61:95:b0:56:2d:31:2b:08:65:79:e5:
                    b1:3b:9d:3e:b9:52:4b:ac:5d:c4:58:66:85:8d:81:
                    b3:04:28:f4:3f:2f:ac:92:01:62:d5:fd:8e:0b:da:
                    02:0c:7a:c7:6e:09:1c:ac:1c:b2:4c:d7:54:b8:26:
                    33:b2:5f:14:f3:b1:f9:3d:62:4d:40:99:6b:b6:e7:
                    89:58:97:d6:d4:4d:ea:4b:68:52:f3:3c:a8:b1:35:
                    88:db
                Exponent: 65537 (0x10001)
        X509v3 extensions:
            X509v3 Subject Key Identifier: 
                A1:DF:33:C3:CF:3E:53:41:A7:68:44:CC:AA:19:E1:84:C9:0D:BC:C6
            X509v3 Authority Key Identifier: 
                keyid:B4:11:33:F1:D7:E2:5E:F7:53:9E:20:22:10:4F:86:06:BF:1F:C9:5E
                DirName:/C=AU/O=Dodgy Brothers/CN=Dodgy CA
                serial:61:FA:82:A9:4C:CB:E0:77:ED:FA:FD:6D:A7:BF:09:02:A6:28:B9:CB
            X509v3 Basic Constraints: critical
                CA:TRUE, pathlen:1
            X509v3 Key Usage: 
                Certificate Sign, CRL Sign
            X509v3 Issuer Alternative Name: 
                <EMPTY>

    Signature Algorithm: sha1WithRSAEncryption
    Signature Value:
        6d:ac:04:cb:63:c5:54:44:9f:0b:31:54:a1:be:30:40:35:86:
        0d:41:bc:45:db:10:dc:06:d1:18:fa:8b:2c:ba:65:28:5f:40:
        5f:85:26:54:9f:b4:ac:d4:ee:fa:4f:08:d5:c8:03:45:4e:80:
        ad:0c:96:c0:8d:b3:6e:db:42:55:38:de:8f:c4:3e:ad:03:24:
        bc:f4:b1:3c:ff:98:90:fb:3d:be:c1:4f:af:f0:02:57:b9:df:
        d1:23:01:0b:58:94:40:bf:52:15:03:32:44:12:d4:8a:a6:13:
        66:e4:5f:f0:bc:eb:d9:8a:65:92:f7:8c:c1:4b:76:37:c4:0e:
        49:2e:8a:07:ed:55:d1:48:16:47:50:24:1e:5e:45:79:5b:55:
        15:ba:46:7b:e8:2d:0d:1e:fd:32:db:db:05:53:e3:ba:6f:f4:
        df:18:6f:86:f9:f7:7b:47:25:02:95:a8:9f:c6:54:09:c2:e4:
        c9:74:d8:70:fa:ad:06:ad:7f:33:8a:c2:dd:e0:88:b7:09:49:
        7d:27:4d:c6:0f:f3:b8:db:ad:4a:3c:9d:d3:0a:18:e9:54:27:
        26:2b:c2:f7:d2:4d:0d:52:30:4e:e1:3d:0d:57:ed:c8:84:35:
        67:31:89:9f:d1:ff:d5:05:fe:39:9d:b8:bb:e3:c4:e5:bc:c4:
        2d:83:9e:9e
-----BEGIN CERTIFICATE-----
MIID5TCCAs2gAwIBAgIUDaCvFp4lmKp+fefMJpusFE/0vzgwDQYJKoZIhvcNAQEF
BQAwOTELMAkGA1UEBhMCQVUxFzAVBgNVBAoMDkRvZGd5IEJyb3RoZXJzMREwDwYD
VQQDDAhEb2RneSBDQTAeFw0yMzA4MTYwNjM5MTVaFw0yNDA4MTUwNjM5MTVaMFkx
CzAJBgNVBAYTAkFVMRcwFQYDVQQKDA5Eb2RneSBCcm90aGVyczESMBAGA1UEAwwJ
QnJvdGhlciAxMR0wGwYDVQQDDBRib3RoX2dlbmVyYWxpemVkdGltZTCCASIwDQYJ
KoZIhvcNAQEBBQADggEPADCCAQoCggEBAL6VhvpxTGrqUZhQS5mhLGYV82Dz4f9p
+85IAR3+4Sw4sOO9j0tIp346xnPjq7/h2m6W9f7D5LSorbxWNNSWJXQnwxDbNRAl
HI5LgZv7QgR8bz3iOGwO5C6OKhhtMM1nKiNrN88Fn8y3WVh/usQKP4ykrcuYnMDy
j2lnD8FOM8/8hV67Xs+TsM/Z9FJ5h7H4TRVoZdW3GQhjf16xNK0Fj1rw5OGPJfJc
XGGVsFYtMSsIZXnlsTudPrlSS6xdxFhmhY2BswQo9D8vrJIBYtX9jgvaAgx6x24J
HKwcskzXVLgmM7JfFPOx+T1iTUCZa7bniViX1tRN6ktoUvM8qLE1iNsCAwEAAaOB
xDCBwTAdBgNVHQ4EFgQUod8zw88+U0GnaETMqhnhhMkNvMYwdAYDVR0jBG0wa4AU
tBEz8dfiXvdTniAiEE+GBr8fyV6hPaQ7MDkxCzAJBgNVBAYTAkFVMRcwFQYDVQQK
DA5Eb2RneSBCcm90aGVyczERMA8GA1UEAwwIRG9kZ3kgQ0GCFGH6gqlMy+B37fr9
bae/CQKmKLnLMBIGA1UdEwEB/wQIMAYBAf8CAQEwCwYDVR0PBAQDAgEGMAkGA1Ud
EgQCMAAwDQYJKoZIhvcNAQEFBQADggEBAG2sBMtjxVREnwsxVKG+MEA1hg1BvEXb
ENwG0Rj6iyy6ZShfQF+FJlSftKzU7vpPCNXIA0VOgK0MlsCNs27bQlU43o/EPq0D
JLz0sTz/mJD7Pb7BT6/wAle539EjAQtYlEC/UhUDMkQS1IqmE2bkX/C869mKZZL3
jMFLdjfEDkkuigftVdFIFkdQJB5eRXlbVRW6RnvoLQ0e/TLb2wVT47pv9N8Yb4b5
93tHJQKVqJ/GVAnC5Ml02HD6rQatfzOKwt3giLcJSX0nTcYP87jbrUo8ndMKGOlU
JyYrwvfSTQ1SME7hPQ1X7ciENWcxiZ/R/9UF/jmduLvjxOW8xC2Dnp4=
-----END CERTIFICATE-----
