Certificate:
    Data:
        Version: 3 (0x2)
        Serial Number:
            0d:a0:af:16:9e:25:98:aa:7e:7d:e7:cc:26:9b:ac:14:4f:f4:bf:35
        Signature Algorithm: sha1WithRSAEncryption
        Issuer: C=AU, O=Dodgy Brothers, CN=Dodgy CA
        Validity
            Not Before: Aug 16 06:39:13 2023 GMT
            Not After : Aug 15 06:39:13 2024 GMT
        Subject: C=AU, O=Dodgy Brothers, CN=Brother 1, CN=nextupdate_utctime
        Subject Public Key Info:
            Public Key Algorithm: rsaEncryption
                Public-Key: (2048 bit)
                Modulus:
                    00:be:95:86:fa:71:4c:6a:ea:51:98:50:4b:99:a1:
                    2c:66:15:f3:60:f3:e1:ff:69:fb:ce:48:01:1d:fe:
                    e1:2c:38:b0:e3:bd:8f:4b:48:a7:7e:3a:c6:73:e3:
                    ab:bf:e1:da:6e:96:f5:fe:c3:e4:b4:a8:ad:bc:56:
                    34:d4:96:25:74:27:c3:10:db:35:10:25:1c:8e:4b:
                    81:9b:fb:42:04:7c:6f:3d:e2:38:6c:0e:e4:2e:8e:
                    2a:18:6d:30:cd:67:2a:23:6b:37:cf:05:9f:cc:b7:
                    59:58:7f:ba:c4:0a:3f:8c:a4:ad:cb:98:9c:c0:f2:
                    8f:69:67:0f:c1:4e:33:cf:fc:85:5e:bb:5e:cf:93:
                    b0:cf:d9:f4:52:79:87:b1:f8:4d:15:68:65:d5:b7:
                    19:08:63:7f:5e:b1:34:ad:05:8f:5a:f0:e4:e1:8f:
                    25:f2:5c:5c:61:95:b0:56:2d:31:2b:08:65:79:e5:
                    b1:3b:9d:3e:b9:52:4b:ac:5d:c4:58:66:85:8d:81:
                    b3:04:28:f4:3f:2f:ac:92:01:62:d5:fd:8e:0b:da:
                    02:0c:7a:c7:6e:09:1c:ac:1c:b2:4c:d7:54:b8:26:
                    33:b2:5f:14:f3:b1:f9:3d:62:4d:40:99:6b:b6:e7:
                    89:58:97:d6:d4:4d:ea:4b:68:52:f3:3c:a8:b1:35:
                    88:db
                Exponent: 65537 (0x10001)
        X509v3 extensions:
            X509v3 Subject Key Identifier: 
                A1:DF:33:C3:CF:3E:53:41:A7:68:44:CC:AA:19:E1:84:C9:0D:BC:C6
            X509v3 Authority Key Identifier: 
                keyid:B4:11:33:F1:D7:E2:5E:F7:53:9E:20:22:10:4F:86:06:BF:1F:C9:5E
                DirName:/C=AU/O=Dodgy Brothers/CN=Dodgy CA
                serial:61:FA:82:A9:4C:CB:E0:77:ED:FA:FD:6D:A7:BF:09:02:A6:28:B9:CB
            X509v3 Basic Constraints: critical
                CA:TRUE, pathlen:1
            X509v3 Key Usage: 
                Certificate Sign, CRL Sign
            X509v3 Issuer Alternative Name: 
                <EMPTY>

    Signature Algorithm: sha1WithRSAEncryption
    Signature Value:
        82:c8:82:60:e5:05:68:bd:ab:90:34:9f:a4:07:02:d6:ec:b5:
        ba:5b:9c:d0:3d:fc:b8:b1:10:25:de:9a:d3:95:39:fd:a0:08:
        15:90:52:59:58:1b:a6:bc:b9:e1:0b:0c:d2:bd:b7:f8:8d:64:
        b0:0d:33:a5:87:8d:95:79:54:16:01:f1:ff:b6:80:2e:84:21:
        73:ae:5b:4a:04:18:b2:8b:59:54:94:0b:3f:7a:2b:69:6b:2c:
        94:e3:0a:26:30:a3:24:16:19:82:7a:74:fd:29:5f:18:8a:96:
        3f:ff:7b:66:30:e2:aa:29:3c:98:8e:92:63:75:03:06:24:e2:
        7f:1e:33:97:b9:55:b8:66:46:2b:64:bd:f8:60:60:f2:77:2c:
        4b:11:6a:71:97:1e:3b:86:ef:b3:cf:cf:7d:b2:91:fe:ae:5b:
        a5:2c:f6:77:e5:35:7f:5d:cf:22:e5:06:48:55:f9:08:a9:8b:
        58:44:8f:6d:44:8d:1f:6f:98:b0:e6:80:12:5c:b4:a0:95:a8:
        a7:f5:af:6b:08:36:d8:cf:87:77:3e:07:16:52:08:5c:bd:d6:
        08:c8:82:ba:13:26:e4:b7:4c:68:f3:8a:34:eb:d1:5f:02:71:
        e7:41:57:4c:ed:50:9f:af:56:12:c6:76:7c:a2:21:f6:b2:af:
        2e:1f:75:b0
-----BEGIN CERTIFICATE-----
MIID4zCCAsugAwIBAgIUDaCvFp4lmKp+fefMJpusFE/0vzUwDQYJKoZIhvcNAQEF
BQAwOTELMAkGA1UEBhMCQVUxFzAVBgNVBAoMDkRvZGd5IEJyb3RoZXJzMREwDwYD
VQQDDAhEb2RneSBDQTAeFw0yMzA4MTYwNjM5MTNaFw0yNDA4MTUwNjM5MTNaMFcx
CzAJBgNVBAYTAkFVMRcwFQYDVQQKDA5Eb2RneSBCcm90aGVyczESMBAGA1UEAwwJ
QnJvdGhlciAxMRswGQYDVQQDDBJuZXh0dXBkYXRlX3V0Y3RpbWUwggEiMA0GCSqG
SIb3DQEBAQUAA4IBDwAwggEKAoIBAQC+lYb6cUxq6lGYUEuZoSxmFfNg8+H/afvO
SAEd/uEsOLDjvY9LSKd+OsZz46u/4dpulvX+w+S0qK28VjTUliV0J8MQ2zUQJRyO
S4Gb+0IEfG894jhsDuQujioYbTDNZyojazfPBZ/Mt1lYf7rECj+MpK3LmJzA8o9p
Zw/BTjPP/IVeu17Pk7DP2fRSeYex+E0VaGXVtxkIY39esTStBY9a8OThjyXyXFxh
lbBWLTErCGV55bE7nT65UkusXcRYZoWNgbMEKPQ/L6ySAWLV/Y4L2gIMesduCRys
HLJM11S4JjOyXxTzsfk9Yk1AmWu254lYl9bUTepLaFLzPKixNYjbAgMBAAGjgcQw
gcEwHQYDVR0OBBYEFKHfM8PPPlNBp2hEzKoZ4YTJDbzGMHQGA1UdIwRtMGuAFLQR
M/HX4l73U54gIhBPhga/H8leoT2kOzA5MQswCQYDVQQGEwJBVTEXMBUGA1UECgwO
RG9kZ3kgQnJvdGhlcnMxETAPBgNVBAMMCERvZGd5IENBghRh+oKpTMvgd+36/W2n
vwkCpii5yzASBgNVHRMBAf8ECDAGAQH/AgEBMAsGA1UdDwQEAwIBBjAJBgNVHRIE
AjAAMA0GCSqGSIb3DQEBBQUAA4IBAQCCyIJg5QVovauQNJ+kBwLW7LW6W5zQPfy4
sRAl3prTlTn9oAgVkFJZWBumvLnhCwzSvbf4jWSwDTOlh42VeVQWAfH/toAuhCFz
rltKBBiyi1lUlAs/eitpayyU4womMKMkFhmCenT9KV8YipY//3tmMOKqKTyYjpJj
dQMGJOJ/HjOXuVW4ZkYrZL34YGDydyxLEWpxlx47hu+zz899spH+rlulLPZ35TV/
Xc8i5QZIVfkIqYtYRI9tRI0fb5iw5oASXLSglain9a9rCDbYz4d3PgcWUghcvdYI
yIK6Eybkt0xo84o069FfAnHnQVdM7VCfr1YSxnZ8oiH2sq8uH3Ww
-----END CERTIFICATE-----
