Certificate:
    Data:
        Version: 3 (0x2)
        Serial Number:
            0d:a0:af:16:9e:25:98:aa:7e:7d:e7:cc:26:9b:ac:14:4f:f4:bf:34
        Signature Algorithm: sha1WithRSAEncryption
        Issuer: C=AU, O=Dodgy Brothers, CN=Dodgy CA
        Validity
            Not Before: Aug 16 06:39:13 2023 GMT
            Not After : Aug 15 06:39:13 2024 GMT
        Subject: C=AU, O=Dodgy Brothers, CN=Brother 1, CN=nextupdate_invalid
        Subject Public Key Info:
            Public Key Algorithm: rsaEncryption
                Public-Key: (2048 bit)
                Modulus:
                    00:be:95:86:fa:71:4c:6a:ea:51:98:50:4b:99:a1:
                    2c:66:15:f3:60:f3:e1:ff:69:fb:ce:48:01:1d:fe:
                    e1:2c:38:b0:e3:bd:8f:4b:48:a7:7e:3a:c6:73:e3:
                    ab:bf:e1:da:6e:96:f5:fe:c3:e4:b4:a8:ad:bc:56:
                    34:d4:96:25:74:27:c3:10:db:35:10:25:1c:8e:4b:
                    81:9b:fb:42:04:7c:6f:3d:e2:38:6c:0e:e4:2e:8e:
                    2a:18:6d:30:cd:67:2a:23:6b:37:cf:05:9f:cc:b7:
                    59:58:7f:ba:c4:0a:3f:8c:a4:ad:cb:98:9c:c0:f2:
                    8f:69:67:0f:c1:4e:33:cf:fc:85:5e:bb:5e:cf:93:
                    b0:cf:d9:f4:52:79:87:b1:f8:4d:15:68:65:d5:b7:
                    19:08:63:7f:5e:b1:34:ad:05:8f:5a:f0:e4:e1:8f:
                    25:f2:5c:5c:61:95:b0:56:2d:31:2b:08:65:79:e5:
                    b1:3b:9d:3e:b9:52:4b:ac:5d:c4:58:66:85:8d:81:
                    b3:04:28:f4:3f:2f:ac:92:01:62:d5:fd:8e:0b:da:
                    02:0c:7a:c7:6e:09:1c:ac:1c:b2:4c:d7:54:b8:26:
                    33:b2:5f:14:f3:b1:f9:3d:62:4d:40:99:6b:b6:e7:
                    89:58:97:d6:d4:4d:ea:4b:68:52:f3:3c:a8:b1:35:
                    88:db
                Exponent: 65537 (0x10001)
        X509v3 extensions:
            X509v3 Subject Key Identifier: 
                A1:DF:33:C3:CF:3E:53:41:A7:68:44:CC:AA:19:E1:84:C9:0D:BC:C6
            X509v3 Authority Key Identifier: 
                keyid:B4:11:33:F1:D7:E2:5E:F7:53:9E:20:22:10:4F:86:06:BF:1F:C9:5E
                DirName:/C=AU/O=Dodgy Brothers/CN=Dodgy CA
                serial:61:FA:82:A9:4C:CB:E0:77:ED:FA:FD:6D:A7:BF:09:02:A6:28:B9:CB
            X509v3 Basic Constraints: critical
                CA:TRUE, pathlen:1
            X509v3 Key Usage: 
                Certificate Sign, CRL Sign
            X509v3 Issuer Alternative Name: 
                <EMPTY>

    Signature Algorithm: sha1WithRSAEncryption
    Signature Value:
        95:a9:0b:92:c1:01:8c:d5:d3:ee:1b:ae:76:14:f4:c4:08:56:
        1d:8c:f4:3d:c9:58:90:2b:0b:6d:9a:2c:a2:ab:5e:e6:fd:a9:
        b1:f4:11:a6:c7:6d:cb:4c:a6:c7:ff:6f:35:7c:f7:3f:3b:ec:
        6a:34:0a:0d:ed:03:d7:b8:55:69:dc:cf:70:aa:48:a4:f2:15:
        dc:f6:79:f3:c5:76:76:c3:1c:f1:66:37:37:c9:dd:2e:a7:3a:
        00:8b:63:02:3f:a2:0d:e5:e4:5f:d1:e4:33:6b:b0:5d:66:60:
        3f:a3:7e:bf:fd:57:23:14:f4:c7:61:e0:70:b8:c6:03:28:31:
        f9:2b:d4:72:f1:88:0e:b1:b3:ce:55:28:68:6d:4d:c3:10:dc:
        85:4b:c0:04:51:ec:73:6c:78:e0:5d:40:89:11:d7:00:f5:4d:
        bc:89:0f:35:08:c0:9a:71:73:99:d0:b8:d6:fe:a2:25:53:47:
        27:bd:21:59:cc:1b:6a:c1:16:7d:36:af:13:81:fa:10:00:bf:
        03:5c:4b:de:ed:c8:6e:2e:2a:98:83:20:b7:9f:be:7f:49:a6:
        41:a6:9f:07:48:6e:71:33:48:bf:e5:8b:29:b2:aa:8e:28:b1:
        8a:2c:f8:3d:3d:e9:6a:11:50:f5:37:bd:09:b6:cb:08:3b:e8:
        17:ab:9c:83
-----BEGIN CERTIFICATE-----
MIID4zCCAsugAwIBAgIUDaCvFp4lmKp+fefMJpusFE/0vzQwDQYJKoZIhvcNAQEF
BQAwOTELMAkGA1UEBhMCQVUxFzAVBgNVBAoMDkRvZGd5IEJyb3RoZXJzMREwDwYD
VQQDDAhEb2RneSBDQTAeFw0yMzA4MTYwNjM5MTNaFw0yNDA4MTUwNjM5MTNaMFcx
CzAJBgNVBAYTAkFVMRcwFQYDVQQKDA5Eb2RneSBCcm90aGVyczESMBAGA1UEAwwJ
QnJvdGhlciAxMRswGQYDVQQDDBJuZXh0dXBkYXRlX2ludmFsaWQwggEiMA0GCSqG
SIb3DQEBAQUAA4IBDwAwggEKAoIBAQC+lYb6cUxq6lGYUEuZoSxmFfNg8+H/afvO
SAEd/uEsOLDjvY9LSKd+OsZz46u/4dpulvX+w+S0qK28VjTUliV0J8MQ2zUQJRyO
S4Gb+0IEfG894jhsDuQujioYbTDNZyojazfPBZ/Mt1lYf7rECj+MpK3LmJzA8o9p
Zw/BTjPP/IVeu17Pk7DP2fRSeYex+E0VaGXVtxkIY39esTStBY9a8OThjyXyXFxh
lbBWLTErCGV55bE7nT65UkusXcRYZoWNgbMEKPQ/L6ySAWLV/Y4L2gIMesduCRys
HLJM11S4JjOyXxTzsfk9Yk1AmWu254lYl9bUTepLaFLzPKixNYjbAgMBAAGjgcQw
gcEwHQYDVR0OBBYEFKHfM8PPPlNBp2hEzKoZ4YTJDbzGMHQGA1UdIwRtMGuAFLQR
M/HX4l73U54gIhBPhga/H8leoT2kOzA5MQswCQYDVQQGEwJBVTEXMBUGA1UECgwO
RG9kZ3kgQnJvdGhlcnMxETAPBgNVBAMMCERvZGd5IENBghRh+oKpTMvgd+36/W2n
vwkCpii5yzASBgNVHRMBAf8ECDAGAQH/AgEBMAsGA1UdDwQEAwIBBjAJBgNVHRIE
AjAAMA0GCSqGSIb3DQEBBQUAA4IBAQCVqQuSwQGM1dPuG652FPTECFYdjPQ9yViQ
Kwttmiyiq17m/amx9BGmx23LTKbH/281fPc/O+xqNAoN7QPXuFVp3M9wqkik8hXc
9nnzxXZ2wxzxZjc3yd0upzoAi2MCP6IN5eRf0eQza7BdZmA/o36//VcjFPTHYeBw
uMYDKDH5K9Ry8YgOsbPOVShobU3DENyFS8AEUexzbHjgXUCJEdcA9U28iQ81CMCa
cXOZ0LjW/qIlU0cnvSFZzBtqwRZ9Nq8TgfoQAL8DXEve7chuLiqYgyC3n75/SaZB
pp8HSG5xM0i/5YspsqqOKLGKLPg9PelqEVD1N70JtssIO+gXq5yD
-----END CERTIFICATE-----
