Certificate:
    Data:
        Version: 3 (0x2)
        Serial Number:
            0d:a0:af:16:9e:25:98:aa:7e:7d:e7:cc:26:9b:ac:14:4f:f4:bf:2e
        Signature Algorithm: sha256WithRSAEncryption
        Issuer: C=AU, O=Dodgy Brothers, CN=Dodgy CA
        Validity
            Not Before: Aug 16 06:39:10 2023 GMT
            Not After : Aug 15 06:39:10 2024 GMT
        Subject: C=AU, O=Dodgy Brothers, CN=Brother 1, CN=Brother 2
        Subject Public Key Info:
            Public Key Algorithm: rsaEncryption
                Public-Key: (2048 bit)
                Modulus:
                    00:a8:ff:89:58:61:85:ae:de:db:2c:0f:d5:73:fb:
                    e2:b7:a8:1b:7a:75:60:2b:d4:7d:3c:73:76:b5:ae:
                    de:93:2f:7f:24:90:6d:c9:1c:f4:8a:38:cd:9f:a2:
                    80:16:56:cb:b4:2c:bb:93:e5:17:1f:ff:0d:c6:43:
                    fe:31:34:f8:28:d8:75:e9:a3:bb:88:82:ef:a3:72:
                    e2:53:62:05:45:4d:e0:31:97:ef:aa:9d:10:d2:58:
                    0d:9e:06:9e:32:bb:1b:08:56:5d:65:0f:3f:66:8e:
                    c2:36:a0:11:ff:c0:59:35:fd:49:1c:dd:1c:42:33:
                    06:78:ae:04:38:23:e5:e7:75:67:d3:94:ad:5a:a9:
                    40:1f:ac:59:10:f5:0c:c1:64:ad:4a:c4:c6:35:53:
                    b3:96:6a:82:1b:15:8b:d1:99:ab:e4:9e:6f:94:aa:
                    d2:96:e5:57:fb:8c:91:64:8a:3c:24:16:c6:d2:19:
                    be:82:60:13:3b:62:b0:ed:3e:1d:b3:ca:f9:6b:df:
                    31:b9:7a:9e:4b:47:68:a7:29:c7:3f:4a:e2:22:27:
                    b4:ef:90:63:d7:ef:d0:72:49:3e:5b:ad:b9:1b:d4:
                    2b:6f:86:68:dd:d5:73:12:b8:43:c9:dc:41:0f:a2:
                    a3:46:4f:8b:67:88:84:0f:61:fe:79:34:1f:4a:89:
                    1f:b7
                Exponent: 65537 (0x10001)
        X509v3 extensions:
            X509v3 Basic Constraints: 
                CA:FALSE
            X509v3 Subject Key Identifier: 
                E7:9B:E2:2A:AD:8A:6C:3A:CB:76:51:E5:8E:07:98:22:97:E1:73:A2
            X509v3 Authority Key Identifier: 
                B4:11:33:F1:D7:E2:5E:F7:53:9E:20:22:10:4F:86:06:BF:1F:C9:5E
    Signature Algorithm: sha256WithRSAEncryption
    Signature Value:
        40:ce:b0:9d:b5:5b:26:e7:e6:7a:e9:c9:96:e0:d8:ac:2d:d2:
        31:6d:2a:8c:3c:8d:37:c6:01:5c:a0:30:da:1f:90:b4:ff:43:
        78:34:7d:60:0d:aa:7b:b5:08:1b:d9:b6:92:5c:cb:d3:53:de:
        68:8e:fc:e8:ad:d5:b3:56:7e:40:1d:3b:37:2e:20:84:8b:4b:
        75:15:4d:6d:7e:e8:b6:45:e1:76:df:86:ed:93:2b:fb:d3:1b:
        f7:33:b4:0d:7d:50:a7:0d:f5:70:76:e0:ea:4d:0a:9d:61:1d:
        34:ba:43:78:97:3d:5c:55:0b:8e:ef:3d:7c:f9:5c:71:79:97:
        d0:06:b1:92:cd:07:97:b8:97:d9:7b:f1:17:9b:89:08:81:f2:
        42:3f:ed:7e:66:b7:ba:45:e8:d3:92:af:fe:a0:9f:d5:0a:7d:
        c3:07:61:5b:58:6c:07:64:57:26:23:5d:9f:d2:ff:c4:aa:c3:
        88:3d:18:de:9b:96:dd:52:7b:15:94:0a:ab:b1:78:41:4f:e2:
        d9:cb:0f:c7:b5:67:86:61:7f:22:d3:a0:55:54:ca:e5:09:32:
        99:9e:02:1c:af:e3:5c:ba:8a:9d:45:d8:31:7d:90:c7:17:0f:
        94:7e:fc:7b:4c:a9:99:f8:63:8c:59:d7:4a:17:71:88:21:66:
        54:90:20:0d
-----BEGIN CERTIFICATE-----
MIIDYjCCAkqgAwIBAgIUDaCvFp4lmKp+fefMJpusFE/0vy4wDQYJKoZIhvcNAQEL
BQAwOTELMAkGA1UEBhMCQVUxFzAVBgNVBAoMDkRvZGd5IEJyb3RoZXJzMREwDwYD
VQQDDAhEb2RneSBDQTAeFw0yMzA4MTYwNjM5MTBaFw0yNDA4MTUwNjM5MTBaME4x
CzAJBgNVBAYTAkFVMRcwFQYDVQQKDA5Eb2RneSBCcm90aGVyczESMBAGA1UEAwwJ
QnJvdGhlciAxMRIwEAYDVQQDDAlCcm90aGVyIDIwggEiMA0GCSqGSIb3DQEBAQUA
A4IBDwAwggEKAoIBAQCo/4lYYYWu3tssD9Vz++K3qBt6dWAr1H08c3a1rt6TL38k
kG3JHPSKOM2fooAWVsu0LLuT5Rcf/w3GQ/4xNPgo2HXpo7uIgu+jcuJTYgVFTeAx
l++qnRDSWA2eBp4yuxsIVl1lDz9mjsI2oBH/wFk1/Ukc3RxCMwZ4rgQ4I+XndWfT
lK1aqUAfrFkQ9QzBZK1KxMY1U7OWaoIbFYvRmavknm+UqtKW5Vf7jJFkijwkFsbS
Gb6CYBM7YrDtPh2zyvlr3zG5ep5LR2inKcc/SuIiJ7TvkGPX79ByST5brbkb1Ctv
hmjd1XMSuEPJ3EEPoqNGT4tniIQPYf55NB9KiR+3AgMBAAGjTTBLMAkGA1UdEwQC
MAAwHQYDVR0OBBYEFOeb4iqtimw6y3ZR5Y4HmCKX4XOiMB8GA1UdIwQYMBaAFLQR
M/HX4l73U54gIhBPhga/H8leMA0GCSqGSIb3DQEBCwUAA4IBAQBAzrCdtVsm5+Z6
6cmW4NisLdIxbSqMPI03xgFcoDDaH5C0/0N4NH1gDap7tQgb2baSXMvTU95ojvzo
rdWzVn5AHTs3LiCEi0t1FU1tfui2ReF234btkyv70xv3M7QNfVCnDfVwduDqTQqd
YR00ukN4lz1cVQuO7z18+VxxeZfQBrGSzQeXuJfZe/EXm4kIgfJCP+1+Zre6RejT
kq/+oJ/VCn3DB2FbWGwHZFcmI12f0v/EqsOIPRjem5bdUnsVlAqrsXhBT+LZyw/H
tWeGYX8i06BVVMrlCTKZngIcr+NcuoqdRdgxfZDHFw+Ufvx7TKmZ+GOMWddKF3GI
IWZUkCAN
-----END CERTIFICATE-----
