Certificate:
    Data:
        Version: 3 (0x2)
        Serial Number:
            0d:a0:af:16:9e:25:98:aa:7e:7d:e7:cc:26:9b:ac:14:4f:f4:bf:33
        Signature Algorithm: sha1WithRSAEncryption
        Issuer: C=AU, O=Dodgy Brothers, CN=Dodgy CA
        Validity
            Not Before: Aug 16 06:39:12 2023 GMT
            Not After : Aug 15 06:39:12 2024 GMT
        Subject: C=AU, O=Dodgy Brothers, CN=Brother 1, CN=lastupdate_generalizedtime
        Subject Public Key Info:
            Public Key Algorithm: rsaEncryption
                Public-Key: (2048 bit)
                Modulus:
                    00:be:95:86:fa:71:4c:6a:ea:51:98:50:4b:99:a1:
                    2c:66:15:f3:60:f3:e1:ff:69:fb:ce:48:01:1d:fe:
                    e1:2c:38:b0:e3:bd:8f:4b:48:a7:7e:3a:c6:73:e3:
                    ab:bf:e1:da:6e:96:f5:fe:c3:e4:b4:a8:ad:bc:56:
                    34:d4:96:25:74:27:c3:10:db:35:10:25:1c:8e:4b:
                    81:9b:fb:42:04:7c:6f:3d:e2:38:6c:0e:e4:2e:8e:
                    2a:18:6d:30:cd:67:2a:23:6b:37:cf:05:9f:cc:b7:
                    59:58:7f:ba:c4:0a:3f:8c:a4:ad:cb:98:9c:c0:f2:
                    8f:69:67:0f:c1:4e:33:cf:fc:85:5e:bb:5e:cf:93:
                    b0:cf:d9:f4:52:79:87:b1:f8:4d:15:68:65:d5:b7:
                    19:08:63:7f:5e:b1:34:ad:05:8f:5a:f0:e4:e1:8f:
                    25:f2:5c:5c:61:95:b0:56:2d:31:2b:08:65:79:e5:
                    b1:3b:9d:3e:b9:52:4b:ac:5d:c4:58:66:85:8d:81:
                    b3:04:28:f4:3f:2f:ac:92:01:62:d5:fd:8e:0b:da:
                    02:0c:7a:c7:6e:09:1c:ac:1c:b2:4c:d7:54:b8:26:
                    33:b2:5f:14:f3:b1:f9:3d:62:4d:40:99:6b:b6:e7:
                    89:58:97:d6:d4:4d:ea:4b:68:52:f3:3c:a8:b1:35:
                    88:db
                Exponent: 65537 (0x10001)
        X509v3 extensions:
            X509v3 Subject Key Identifier: 
                A1:DF:33:C3:CF:3E:53:41:A7:68:44:CC:AA:19:E1:84:C9:0D:BC:C6
            X509v3 Authority Key Identifier: 
                keyid:B4:11:33:F1:D7:E2:5E:F7:53:9E:20:22:10:4F:86:06:BF:1F:C9:5E
                DirName:/C=AU/O=Dodgy Brothers/CN=Dodgy CA
                serial:61:FA:82:A9:4C:CB:E0:77:ED:FA:FD:6D:A7:BF:09:02:A6:28:B9:CB
            X509v3 Basic Constraints: critical
                CA:TRUE, pathlen:1
            X509v3 Key Usage: 
                Certificate Sign, CRL Sign
            X509v3 Issuer Alternative Name: 
                <EMPTY>

    Signature Algorithm: sha1WithRSAEncryption
    Signature Value:
        4e:7a:25:f5:84:63:20:80:46:f0:2a:73:f8:f2:6c:54:67:01:
        6b:ff:fa:28:ba:1c:61:af:91:e6:8c:d7:c0:68:ae:dc:b3:81:
        b5:7a:05:58:1a:f4:4d:ef:fb:53:62:4e:4b:49:59:f9:bb:c1:
        23:6c:a0:af:56:f4:99:dc:6f:f1:5e:f1:86:23:56:71:f5:83:
        62:8c:b3:4b:15:a9:e9:c0:ac:f6:be:45:85:6a:68:d4:cb:89:
        c7:a4:10:f4:1f:b4:40:68:60:62:25:5d:11:2c:61:b4:8f:bb:
        d9:5a:d8:72:17:51:5a:fa:b6:0b:23:78:7f:13:38:e5:43:bf:
        d9:44:24:95:fb:df:73:41:54:8e:9e:cc:92:cf:0c:c5:af:97:
        33:b9:bb:d7:b6:95:0e:b3:86:f8:59:0e:a4:ff:4b:94:a5:ba:
        78:51:37:d7:5d:3e:ea:32:84:99:52:82:f8:3b:d9:47:be:92:
        53:19:37:6b:01:ce:0f:7b:ec:8e:e2:7c:5c:40:b3:8e:d3:50:
        2c:cb:0e:31:96:cd:48:52:bd:2b:a0:06:84:e8:98:b0:ac:1a:
        85:80:8b:1f:2f:a5:a0:43:cc:c1:e9:1f:9a:1e:31:d7:0f:20:
        06:3c:01:0e:62:88:23:4e:92:8f:6e:c0:8b:1e:4e:c7:e2:f8:
        aa:41:3e:56
-----BEGIN CERTIFICATE-----
MIID6zCCAtOgAwIBAgIUDaCvFp4lmKp+fefMJpusFE/0vzMwDQYJKoZIhvcNAQEF
BQAwOTELMAkGA1UEBhMCQVUxFzAVBgNVBAoMDkRvZGd5IEJyb3RoZXJzMREwDwYD
VQQDDAhEb2RneSBDQTAeFw0yMzA4MTYwNjM5MTJaFw0yNDA4MTUwNjM5MTJaMF8x
CzAJBgNVBAYTAkFVMRcwFQYDVQQKDA5Eb2RneSBCcm90aGVyczESMBAGA1UEAwwJ
QnJvdGhlciAxMSMwIQYDVQQDDBpsYXN0dXBkYXRlX2dlbmVyYWxpemVkdGltZTCC
ASIwDQYJKoZIhvcNAQEBBQADggEPADCCAQoCggEBAL6VhvpxTGrqUZhQS5mhLGYV
82Dz4f9p+85IAR3+4Sw4sOO9j0tIp346xnPjq7/h2m6W9f7D5LSorbxWNNSWJXQn
wxDbNRAlHI5LgZv7QgR8bz3iOGwO5C6OKhhtMM1nKiNrN88Fn8y3WVh/usQKP4yk
rcuYnMDyj2lnD8FOM8/8hV67Xs+TsM/Z9FJ5h7H4TRVoZdW3GQhjf16xNK0Fj1rw
5OGPJfJcXGGVsFYtMSsIZXnlsTudPrlSS6xdxFhmhY2BswQo9D8vrJIBYtX9jgva
Agx6x24JHKwcskzXVLgmM7JfFPOx+T1iTUCZa7bniViX1tRN6ktoUvM8qLE1iNsC
AwEAAaOBxDCBwTAdBgNVHQ4EFgQUod8zw88+U0GnaETMqhnhhMkNvMYwdAYDVR0j
BG0wa4AUtBEz8dfiXvdTniAiEE+GBr8fyV6hPaQ7MDkxCzAJBgNVBAYTAkFVMRcw
FQYDVQQKDA5Eb2RneSBCcm90aGVyczERMA8GA1UEAwwIRG9kZ3kgQ0GCFGH6gqlM
y+B37fr9bae/CQKmKLnLMBIGA1UdEwEB/wQIMAYBAf8CAQEwCwYDVR0PBAQDAgEG
MAkGA1UdEgQCMAAwDQYJKoZIhvcNAQEFBQADggEBAE56JfWEYyCARvAqc/jybFRn
AWv/+ii6HGGvkeaM18BortyzgbV6BVga9E3v+1NiTktJWfm7wSNsoK9W9Jncb/Fe
8YYjVnH1g2KMs0sVqenArPa+RYVqaNTLicekEPQftEBoYGIlXREsYbSPu9la2HIX
UVr6tgsjeH8TOOVDv9lEJJX733NBVI6ezJLPDMWvlzO5u9e2lQ6zhvhZDqT/S5Sl
unhRN9ddPuoyhJlSgvg72Ue+klMZN2sBzg977I7ifFxAs47TUCzLDjGWzUhSvSug
BoTomLCsGoWAix8vpaBDzMHpH5oeMdcPIAY8AQ5iiCNOko9uwIseTsfi+KpBPlY=
-----END CERTIFICATE-----
