Certificate:
    Data:
        Version: 3 (0x2)
        Serial Number:
            0d:a0:af:16:9e:25:98:aa:7e:7d:e7:cc:26:9b:ac:14:4f:f4:bf:32
        Signature Algorithm: sha1WithRSAEncryption
        Issuer: C=AU, O=Dodgy Brothers, CN=Dodgy CA
        Validity
            Not Before: Aug 16 06:39:12 2023 GMT
            Not After : Aug 15 06:39:12 2024 GMT
        Subject: C=AU, O=Dodgy Brothers, CN=Brother 1, CN=lastupdate_utctime
        Subject Public Key Info:
            Public Key Algorithm: rsaEncryption
                Public-Key: (2048 bit)
                Modulus:
                    00:be:95:86:fa:71:4c:6a:ea:51:98:50:4b:99:a1:
                    2c:66:15:f3:60:f3:e1:ff:69:fb:ce:48:01:1d:fe:
                    e1:2c:38:b0:e3:bd:8f:4b:48:a7:7e:3a:c6:73:e3:
                    ab:bf:e1:da:6e:96:f5:fe:c3:e4:b4:a8:ad:bc:56:
                    34:d4:96:25:74:27:c3:10:db:35:10:25:1c:8e:4b:
                    81:9b:fb:42:04:7c:6f:3d:e2:38:6c:0e:e4:2e:8e:
                    2a:18:6d:30:cd:67:2a:23:6b:37:cf:05:9f:cc:b7:
                    59:58:7f:ba:c4:0a:3f:8c:a4:ad:cb:98:9c:c0:f2:
                    8f:69:67:0f:c1:4e:33:cf:fc:85:5e:bb:5e:cf:93:
                    b0:cf:d9:f4:52:79:87:b1:f8:4d:15:68:65:d5:b7:
                    19:08:63:7f:5e:b1:34:ad:05:8f:5a:f0:e4:e1:8f:
                    25:f2:5c:5c:61:95:b0:56:2d:31:2b:08:65:79:e5:
                    b1:3b:9d:3e:b9:52:4b:ac:5d:c4:58:66:85:8d:81:
                    b3:04:28:f4:3f:2f:ac:92:01:62:d5:fd:8e:0b:da:
                    02:0c:7a:c7:6e:09:1c:ac:1c:b2:4c:d7:54:b8:26:
                    33:b2:5f:14:f3:b1:f9:3d:62:4d:40:99:6b:b6:e7:
                    89:58:97:d6:d4:4d:ea:4b:68:52:f3:3c:a8:b1:35:
                    88:db
                Exponent: 65537 (0x10001)
        X509v3 extensions:
            X509v3 Subject Key Identifier: 
                A1:DF:33:C3:CF:3E:53:41:A7:68:44:CC:AA:19:E1:84:C9:0D:BC:C6
            X509v3 Authority Key Identifier: 
                keyid:B4:11:33:F1:D7:E2:5E:F7:53:9E:20:22:10:4F:86:06:BF:1F:C9:5E
                DirName:/C=AU/O=Dodgy Brothers/CN=Dodgy CA
                serial:61:FA:82:A9:4C:CB:E0:77:ED:FA:FD:6D:A7:BF:09:02:A6:28:B9:CB
            X509v3 Basic Constraints: critical
                CA:TRUE, pathlen:1
            X509v3 Key Usage: 
                Certificate Sign, CRL Sign
            X509v3 Issuer Alternative Name: 
                <EMPTY>

    Signature Algorithm: sha1WithRSAEncryption
    Signature Value:
        02:ca:8c:11:79:70:e2:f7:28:3f:83:70:a6:27:43:6c:f6:ab:
        81:b3:a4:93:83:e0:0a:a6:05:d2:f2:36:19:c9:96:8c:e2:81:
        02:50:c5:07:c9:cf:e5:08:dd:ad:5a:3c:9c:f1:d2:fc:43:4b:
        17:c4:86:ce:68:9b:6c:0a:a4:d2:ca:10:64:9c:84:3f:25:09:
        98:06:8c:fb:81:d1:a5:4b:85:4b:2f:fc:14:ed:2b:d4:23:ee:
        e7:14:51:86:4d:a5:6c:b5:7b:08:78:20:10:54:5b:0f:a5:f6:
        2a:b1:ba:e3:ad:5b:42:01:ed:09:a3:f8:a3:26:7b:b0:eb:0e:
        6a:c6:8a:fa:59:7c:47:8f:17:02:44:bd:55:3e:48:6c:69:ce:
        46:0f:f0:7e:2d:3e:9f:55:a8:2d:8b:a6:17:0b:ad:f9:55:07:
        dc:d1:ed:c5:a5:aa:1e:09:1a:36:47:b3:46:c3:ec:b4:81:27:
        2a:05:a2:d3:e8:f6:c9:dc:bb:34:8a:70:95:e4:38:bf:ee:9d:
        7a:14:39:fb:33:64:76:1f:c2:5d:f2:20:e7:2e:07:76:82:94:
        29:0b:7a:64:08:b1:11:4e:1a:ea:e1:12:a4:13:98:49:65:a7:
        ed:fd:10:23:01:09:c0:92:66:f9:9b:40:c7:78:08:4a:ce:0f:
        71:d9:41:16
-----BEGIN CERTIFICATE-----
MIID4zCCAsugAwIBAgIUDaCvFp4lmKp+fefMJpusFE/0vzIwDQYJKoZIhvcNAQEF
BQAwOTELMAkGA1UEBhMCQVUxFzAVBgNVBAoMDkRvZGd5IEJyb3RoZXJzMREwDwYD
VQQDDAhEb2RneSBDQTAeFw0yMzA4MTYwNjM5MTJaFw0yNDA4MTUwNjM5MTJaMFcx
CzAJBgNVBAYTAkFVMRcwFQYDVQQKDA5Eb2RneSBCcm90aGVyczESMBAGA1UEAwwJ
QnJvdGhlciAxMRswGQYDVQQDDBJsYXN0dXBkYXRlX3V0Y3RpbWUwggEiMA0GCSqG
SIb3DQEBAQUAA4IBDwAwggEKAoIBAQC+lYb6cUxq6lGYUEuZoSxmFfNg8+H/afvO
SAEd/uEsOLDjvY9LSKd+OsZz46u/4dpulvX+w+S0qK28VjTUliV0J8MQ2zUQJRyO
S4Gb+0IEfG894jhsDuQujioYbTDNZyojazfPBZ/Mt1lYf7rECj+MpK3LmJzA8o9p
Zw/BTjPP/IVeu17Pk7DP2fRSeYex+E0VaGXVtxkIY39esTStBY9a8OThjyXyXFxh
lbBWLTErCGV55bE7nT65UkusXcRYZoWNgbMEKPQ/L6ySAWLV/Y4L2gIMesduCRys
HLJM11S4JjOyXxTzsfk9Yk1AmWu254lYl9bUTepLaFLzPKixNYjbAgMBAAGjgcQw
gcEwHQYDVR0OBBYEFKHfM8PPPlNBp2hEzKoZ4YTJDbzGMHQGA1UdIwRtMGuAFLQR
M/HX4l73U54gIhBPhga/H8leoT2kOzA5MQswCQYDVQQGEwJBVTEXMBUGA1UECgwO
RG9kZ3kgQnJvdGhlcnMxETAPBgNVBAMMCERvZGd5IENBghRh+oKpTMvgd+36/W2n
vwkCpii5yzASBgNVHRMBAf8ECDAGAQH/AgEBMAsGA1UdDwQEAwIBBjAJBgNVHRIE
AjAAMA0GCSqGSIb3DQEBBQUAA4IBAQACyowReXDi9yg/g3CmJ0Ns9quBs6STg+AK
pgXS8jYZyZaM4oECUMUHyc/lCN2tWjyc8dL8Q0sXxIbOaJtsCqTSyhBknIQ/JQmY
Boz7gdGlS4VLL/wU7SvUI+7nFFGGTaVstXsIeCAQVFsPpfYqsbrjrVtCAe0Jo/ij
Jnuw6w5qxor6WXxHjxcCRL1VPkhsac5GD/B+LT6fVagti6YXC635VQfc0e3Fpaoe
CRo2R7NGw+y0gScqBaLT6PbJ3Ls0inCV5Di/7p16FDn7M2R2H8Jd8iDnLgd2gpQp
C3pkCLERThrq4RKkE5hJZaft/RAjAQnAkmb5m0DHeAhKzg9x2UEW
-----END CERTIFICATE-----
