Certificate:
    Data:
        Version: 3 (0x2)
        Serial Number:
            0d:a0:af:16:9e:25:98:aa:7e:7d:e7:cc:26:9b:ac:14:4f:f4:bf:31
        Signature Algorithm: sha1WithRSAEncryption
        Issuer: C=AU, O=Dodgy Brothers, CN=Dodgy CA
        Validity
            Not Before: Aug 16 06:39:11 2023 GMT
            Not After : Aug 15 06:39:11 2024 GMT
        Subject: C=AU, O=Dodgy Brothers, CN=Brother 1, CN=lastupdate_invalid
        Subject Public Key Info:
            Public Key Algorithm: rsaEncryption
                Public-Key: (2048 bit)
                Modulus:
                    00:be:95:86:fa:71:4c:6a:ea:51:98:50:4b:99:a1:
                    2c:66:15:f3:60:f3:e1:ff:69:fb:ce:48:01:1d:fe:
                    e1:2c:38:b0:e3:bd:8f:4b:48:a7:7e:3a:c6:73:e3:
                    ab:bf:e1:da:6e:96:f5:fe:c3:e4:b4:a8:ad:bc:56:
                    34:d4:96:25:74:27:c3:10:db:35:10:25:1c:8e:4b:
                    81:9b:fb:42:04:7c:6f:3d:e2:38:6c:0e:e4:2e:8e:
                    2a:18:6d:30:cd:67:2a:23:6b:37:cf:05:9f:cc:b7:
                    59:58:7f:ba:c4:0a:3f:8c:a4:ad:cb:98:9c:c0:f2:
                    8f:69:67:0f:c1:4e:33:cf:fc:85:5e:bb:5e:cf:93:
                    b0:cf:d9:f4:52:79:87:b1:f8:4d:15:68:65:d5:b7:
                    19:08:63:7f:5e:b1:34:ad:05:8f:5a:f0:e4:e1:8f:
                    25:f2:5c:5c:61:95:b0:56:2d:31:2b:08:65:79:e5:
                    b1:3b:9d:3e:b9:52:4b:ac:5d:c4:58:66:85:8d:81:
                    b3:04:28:f4:3f:2f:ac:92:01:62:d5:fd:8e:0b:da:
                    02:0c:7a:c7:6e:09:1c:ac:1c:b2:4c:d7:54:b8:26:
                    33:b2:5f:14:f3:b1:f9:3d:62:4d:40:99:6b:b6:e7:
                    89:58:97:d6:d4:4d:ea:4b:68:52:f3:3c:a8:b1:35:
                    88:db
                Exponent: 65537 (0x10001)
        X509v3 extensions:
            X509v3 Subject Key Identifier: 
                A1:DF:33:C3:CF:3E:53:41:A7:68:44:CC:AA:19:E1:84:C9:0D:BC:C6
            X509v3 Authority Key Identifier: 
                keyid:B4:11:33:F1:D7:E2:5E:F7:53:9E:20:22:10:4F:86:06:BF:1F:C9:5E
                DirName:/C=AU/O=Dodgy Brothers/CN=Dodgy CA
                serial:61:FA:82:A9:4C:CB:E0:77:ED:FA:FD:6D:A7:BF:09:02:A6:28:B9:CB
            X509v3 Basic Constraints: critical
                CA:TRUE, pathlen:1
            X509v3 Key Usage: 
                Certificate Sign, CRL Sign
            X509v3 Issuer Alternative Name: 
                <EMPTY>

    Signature Algorithm: sha1WithRSAEncryption
    Signature Value:
        85:32:d2:4e:de:b6:36:ef:df:6b:73:4d:f7:6e:f1:2d:44:4d:
        26:71:9a:e5:3a:68:22:65:fe:02:16:03:84:23:01:0c:95:39:
        4e:29:40:6c:ba:f3:2d:fe:51:18:3e:da:01:18:89:6c:a2:4a:
        2c:9b:84:86:a9:ed:cf:67:fa:d0:6f:6a:e3:f1:7e:46:7b:85:
        a0:2f:d4:e8:59:dc:c1:5b:67:5f:b9:02:33:ab:d7:a1:a7:b5:
        e2:a7:10:1a:a2:22:e1:ac:af:ce:7d:b8:7a:6f:40:03:17:23:
        8f:91:da:02:3d:27:de:8c:b7:ef:61:cc:cc:72:40:79:89:d0:
        88:4d:9f:95:19:6d:91:3c:9d:c5:20:82:3a:21:7d:b3:6e:91:
        3a:40:1b:7d:ae:a7:57:d5:3f:76:d9:2b:3d:ac:e8:4d:87:b1:
        65:8f:12:e7:f1:05:14:12:dd:58:d1:1c:26:60:70:4b:a7:f2:
        e0:66:bb:3a:25:5d:9d:4f:d8:b0:f9:12:ad:cf:08:5c:e6:22:
        dd:f0:ae:8a:85:f6:1d:74:2b:9a:e4:68:87:90:ba:38:53:0a:
        de:03:75:53:8b:52:1b:17:7a:cb:eb:90:a5:28:dd:ab:ab:ce:
        4b:5d:29:5e:f2:2c:2a:b4:0f:45:a9:9a:ae:36:94:0c:40:66:
        59:24:0f:c6
-----BEGIN CERTIFICATE-----
MIID4zCCAsugAwIBAgIUDaCvFp4lmKp+fefMJpusFE/0vzEwDQYJKoZIhvcNAQEF
BQAwOTELMAkGA1UEBhMCQVUxFzAVBgNVBAoMDkRvZGd5IEJyb3RoZXJzMREwDwYD
VQQDDAhEb2RneSBDQTAeFw0yMzA4MTYwNjM5MTFaFw0yNDA4MTUwNjM5MTFaMFcx
CzAJBgNVBAYTAkFVMRcwFQYDVQQKDA5Eb2RneSBCcm90aGVyczESMBAGA1UEAwwJ
QnJvdGhlciAxMRswGQYDVQQDDBJsYXN0dXBkYXRlX2ludmFsaWQwggEiMA0GCSqG
SIb3DQEBAQUAA4IBDwAwggEKAoIBAQC+lYb6cUxq6lGYUEuZoSxmFfNg8+H/afvO
SAEd/uEsOLDjvY9LSKd+OsZz46u/4dpulvX+w+S0qK28VjTUliV0J8MQ2zUQJRyO
S4Gb+0IEfG894jhsDuQujioYbTDNZyojazfPBZ/Mt1lYf7rECj+MpK3LmJzA8o9p
Zw/BTjPP/IVeu17Pk7DP2fRSeYex+E0VaGXVtxkIY39esTStBY9a8OThjyXyXFxh
lbBWLTErCGV55bE7nT65UkusXcRYZoWNgbMEKPQ/L6ySAWLV/Y4L2gIMesduCRys
HLJM11S4JjOyXxTzsfk9Yk1AmWu254lYl9bUTepLaFLzPKixNYjbAgMBAAGjgcQw
gcEwHQYDVR0OBBYEFKHfM8PPPlNBp2hEzKoZ4YTJDbzGMHQGA1UdIwRtMGuAFLQR
M/HX4l73U54gIhBPhga/H8leoT2kOzA5MQswCQYDVQQGEwJBVTEXMBUGA1UECgwO
RG9kZ3kgQnJvdGhlcnMxETAPBgNVBAMMCERvZGd5IENBghRh+oKpTMvgd+36/W2n
vwkCpii5yzASBgNVHRMBAf8ECDAGAQH/AgEBMAsGA1UdDwQEAwIBBjAJBgNVHRIE
AjAAMA0GCSqGSIb3DQEBBQUAA4IBAQCFMtJO3rY2799rc033bvEtRE0mcZrlOmgi
Zf4CFgOEIwEMlTlOKUBsuvMt/lEYPtoBGIlsokosm4SGqe3PZ/rQb2rj8X5Ge4Wg
L9ToWdzBW2dfuQIzq9ehp7XipxAaoiLhrK/Ofbh6b0ADFyOPkdoCPSfejLfvYczM
ckB5idCITZ+VGW2RPJ3FIII6IX2zbpE6QBt9rqdX1T922Ss9rOhNh7FljxLn8QUU
Et1Y0RwmYHBLp/LgZrs6JV2dT9iw+RKtzwhc5iLd8K6KhfYddCua5GiHkLo4Uwre
A3VTi1IbF3rL65ClKN2rq85LXSle8iwqtA9FqZquNpQMQGZZJA/G
-----END CERTIFICATE-----
