Certificate:
    Data:
        Version: 3 (0x2)
        Serial Number:
            61:fa:82:a9:4c:cb:e0:77:ed:fa:fd:6d:a7:bf:09:02:a6:28:b9:cb
        Signature Algorithm: sha1WithRSAEncryption
        Issuer: C=AU, O=Dodgy Brothers, CN=Dodgy CA
        Validity
            Not Before: Aug 16 06:39:09 2023 GMT
            Not After : Aug 15 06:39:09 2026 GMT
        Subject: C=AU, O=Dodgy Brothers, CN=Dodgy CA
        Subject Public Key Info:
            Public Key Algorithm: rsaEncryption
                Public-Key: (2048 bit)
                Modulus:
                    00:96:9d:a4:3d:00:4b:1c:5f:c6:cb:dd:8f:d2:31:
                    b2:88:15:cc:c4:86:2c:5c:e2:69:8b:84:f4:a7:a3:
                    53:df:91:e3:bf:51:89:fb:f0:7c:10:0d:3b:ad:ac:
                    35:62:75:f5:7f:ff:f4:6e:54:8f:05:a6:92:23:b3:
                    9f:59:39:d0:39:18:b0:10:40:de:62:73:8a:4e:b0:
                    8e:df:dc:e7:c9:41:22:54:84:80:08:29:bc:35:3c:
                    86:df:30:de:dd:b4:24:ff:7e:62:a5:c0:7a:e8:2a:
                    16:3f:d6:97:da:c5:42:db:2f:69:64:91:cb:08:d7:
                    56:5a:79:7f:1b:84:41:e9:4d:9d:77:09:10:a8:6c:
                    29:33:44:c6:c0:54:65:e6:e8:e3:f2:75:05:6a:64:
                    95:6c:c0:f4:fd:25:61:6e:48:36:f0:c0:03:07:05:
                    d6:7c:e5:11:fd:18:e8:4a:2d:d3:72:0c:37:28:36:
                    31:31:38:85:e8:71:8d:d8:02:49:c8:bc:19:89:c5:
                    8a:b1:3f:a2:35:ea:aa:90:1c:64:68:7b:af:67:6a:
                    5a:06:54:0f:50:e1:f9:b4:f6:be:3a:d4:ce:3f:1e:
                    4c:7d:c6:77:32:3e:a2:58:ed:db:dd:74:d8:92:14:
                    6a:a8:f7:cb:34:58:91:a8:7c:14:b1:7d:08:b3:4d:
                    b1:47
                Exponent: 65537 (0x10001)
        X509v3 extensions:
            X509v3 Subject Key Identifier: 
                B4:11:33:F1:D7:E2:5E:F7:53:9E:20:22:10:4F:86:06:BF:1F:C9:5E
            X509v3 Authority Key Identifier: 
                keyid:B4:11:33:F1:D7:E2:5E:F7:53:9E:20:22:10:4F:86:06:BF:1F:C9:5E
                DirName:/C=AU/O=Dodgy Brothers/CN=Dodgy CA
                serial:61:FA:82:A9:4C:CB:E0:77:ED:FA:FD:6D:A7:BF:09:02:A6:28:B9:CB
            X509v3 Basic Constraints: critical
                CA:TRUE, pathlen:1
            X509v3 Key Usage: 
                Certificate Sign, CRL Sign
            X509v3 Issuer Alternative Name: 
                <EMPTY>

    Signature Algorithm: sha1WithRSAEncryption
    Signature Value:
        2b:52:1e:18:79:17:5e:e5:41:5b:4f:52:02:1b:dc:1f:ef:40:
        28:5e:b6:7a:f0:ca:fa:a1:b6:c7:dc:c0:e3:b9:d7:80:cf:44:
        4c:90:d0:b3:dc:8d:8f:14:c2:31:7d:8c:d7:79:b6:05:42:b5:
        85:98:50:8e:c2:53:a5:2f:dc:d8:57:40:a3:a1:7c:28:1d:0b:
        de:32:fa:71:11:2a:9b:83:c6:8f:fb:aa:4e:55:a9:aa:12:24:
        2b:0e:9d:73:da:1b:24:7c:a0:d2:e4:9b:43:3c:53:eb:20:aa:
        58:5f:1e:27:96:9a:d0:17:dc:bb:02:59:1b:c8:37:9c:99:b3:
        fc:e1:a7:01:2c:b0:b6:d1:bb:5e:11:72:85:d4:ac:7a:f4:f5:
        f7:eb:57:c3:67:16:2b:4b:15:5c:5d:1a:b0:c3:44:47:89:98:
        4f:99:31:61:d1:6a:fe:87:38:c0:4b:b8:c9:8f:36:60:c6:c3:
        3a:a3:8c:ed:c7:f0:03:0e:40:0d:fb:85:a5:bc:35:c7:9f:9a:
        83:3d:df:d0:eb:d4:dc:04:db:74:66:de:79:a1:68:03:f6:1d:
        90:22:8b:8b:19:ae:18:a9:b8:f8:c8:bf:47:61:33:57:d4:6e:
        7f:99:4d:5b:25:ca:c9:54:8e:fe:77:1b:57:9d:34:0e:ff:5f:
        7c:16:f5:c5
-----BEGIN CERTIFICATE-----
MIIDxTCCAq2gAwIBAgIUYfqCqUzL4Hft+v1tp78JAqYoucswDQYJKoZIhvcNAQEF
BQAwOTELMAkGA1UEBhMCQVUxFzAVBgNVBAoMDkRvZGd5IEJyb3RoZXJzMREwDwYD
VQQDDAhEb2RneSBDQTAeFw0yMzA4MTYwNjM5MDlaFw0yNjA4MTUwNjM5MDlaMDkx
CzAJBgNVBAYTAkFVMRcwFQYDVQQKDA5Eb2RneSBCcm90aGVyczERMA8GA1UEAwwI
RG9kZ3kgQ0EwggEiMA0GCSqGSIb3DQEBAQUAA4IBDwAwggEKAoIBAQCWnaQ9AEsc
X8bL3Y/SMbKIFczEhixc4mmLhPSno1PfkeO/UYn78HwQDTutrDVidfV///RuVI8F
ppIjs59ZOdA5GLAQQN5ic4pOsI7f3OfJQSJUhIAIKbw1PIbfMN7dtCT/fmKlwHro
KhY/1pfaxULbL2lkkcsI11ZaeX8bhEHpTZ13CRCobCkzRMbAVGXm6OPydQVqZJVs
wPT9JWFuSDbwwAMHBdZ85RH9GOhKLdNyDDcoNjExOIXocY3YAknIvBmJxYqxP6I1
6qqQHGRoe69naloGVA9Q4fm09r461M4/Hkx9xncyPqJY7dvddNiSFGqo98s0WJGo
fBSxfQizTbFHAgMBAAGjgcQwgcEwHQYDVR0OBBYEFLQRM/HX4l73U54gIhBPhga/
H8leMHQGA1UdIwRtMGuAFLQRM/HX4l73U54gIhBPhga/H8leoT2kOzA5MQswCQYD
VQQGEwJBVTEXMBUGA1UECgwORG9kZ3kgQnJvdGhlcnMxETAPBgNVBAMMCERvZGd5
IENBghRh+oKpTMvgd+36/W2nvwkCpii5yzASBgNVHRMBAf8ECDAGAQH/AgEBMAsG
A1UdDwQEAwIBBjAJBgNVHRIEAjAAMA0GCSqGSIb3DQEBBQUAA4IBAQArUh4YeRde
5UFbT1ICG9wf70AoXrZ68Mr6obbH3MDjudeAz0RMkNCz3I2PFMIxfYzXebYFQrWF
mFCOwlOlL9zYV0CjoXwoHQveMvpxESqbg8aP+6pOVamqEiQrDp1z2hskfKDS5JtD
PFPrIKpYXx4nlprQF9y7AlkbyDecmbP84acBLLC20bteEXKF1Kx69PX361fDZxYr
SxVcXRqww0RHiZhPmTFh0Wr+hzjAS7jJjzZgxsM6o4ztx/ADDkAN+4WlvDXHn5qD
Pd/Q69TcBNt0Zt55oWgD9h2QIouLGa4Yqbj4yL9HYTNX1G5/mU1bJcrJVI7+dxtX
nTQO/198FvXF
-----END CERTIFICATE-----
