Certificate:
    Data:
        Version: 3 (0x2)
        Serial Number: 1234567890 (0x499602d2)
        Signature Algorithm: sha256WithRSAEncryption
        Issuer: CN = ca.example.com
        Validity
            Not Before: Aug 16 06:37:58 2023 GMT
            Not After : Aug 15 06:37:58 2024 GMT
        Subject: CN = test.example.com
        Subject Public Key Info:
            Public Key Algorithm: rsaEncryption
                Public-Key: (2048 bit)
                Modulus:
                    00:cd:8e:fb:b4:4c:77:2b:2f:12:10:02:08:f2:44:
                    e9:ce:58:b6:f0:be:41:4c:1d:6a:7c:87:88:45:ba:
                    59:e5:75:08:2d:a4:cd:93:bd:97:a1:7b:13:ed:8d:
                    3b:ff:7f:9c:8c:a9:80:40:09:55:e6:36:f2:c2:4d:
                    f0:fb:50:ac:4c:f8:4b:e7:73:7b:fe:ce:de:c5:74:
                    9f:97:a0:28:30:49:0e:fb:df:89:bf:a7:8a:1f:07:
                    fd:fc:f3:31:7c:1d:44:4c:19:8f:ec:32:56:a3:67:
                    91:2f:3c:b4:e2:04:69:e7:ce:de:c0:74:65:df:7f:
                    b8:15:95:8a:5d:b3:80:6f:b0:d3:8d:a1:70:60:03:
                    c4:ea:0a:1c:4f:51:2a:62:d0:c9:61:7d:89:8d:1a:
                    82:83:a7:de:1d:5a:82:49:a5:44:fd:7f:bf:9a:94:
                    cd:41:e0:93:0f:2d:59:3e:89:be:91:d1:b6:e8:1f:
                    c0:f3:ea:e0:f6:46:b6:b3:80:c4:18:40:57:ea:78:
                    49:63:f2:ec:24:d1:a1:83:fc:b4:4a:ef:73:bc:53:
                    41:81:b3:0e:c9:b8:86:4a:df:1a:25:f8:24:23:84:
                    f7:4e:03:af:b5:2b:42:fb:b7:03:4c:8e:34:3e:5e:
                    f9:3b:96:15:89:b9:4e:33:25:06:04:81:7a:29:b3:
                    0b:69
                Exponent: 65537 (0x10001)
        X509v3 extensions:
            X509v3 Subject Key Identifier: 
                59:42:AF:C6:5A:61:34:85:B8:53:4A:4E:6B:1D:FD:43:EF:75:E2:46
            X509v3 Authority Key Identifier: 
                59:42:AF:C6:5A:61:34:85:B8:53:4A:4E:6B:1D:FD:43:EF:75:E2:46
            X509v3 Basic Constraints: critical
                CA:TRUE
    Signature Algorithm: sha256WithRSAEncryption
    Signature Value:
        30:e7:60:30:b8:b5:4b:67:1f:f6:45:84:3e:d7:ab:a1:3d:4a:
        41:63:5b:93:00:4a:24:f4:07:ce:18:90:87:ba:11:b1:46:a1:
        0f:00:7f:2f:c2:c0:8e:32:8a:30:96:35:7b:de:cc:bc:fd:f2:
        41:ef:63:43:a1:fd:56:57:c7:13:35:30:28:8e:d9:fe:72:98:
        a3:a2:6d:74:a8:b7:7e:aa:45:39:5a:4a:7a:b8:3c:f1:45:17:
        9f:d2:f0:98:b5:83:e8:59:b8:88:0d:25:8f:3c:64:d9:85:87:
        39:5b:8b:96:78:6c:3c:80:b0:3b:37:07:eb:c7:60:64:79:94:
        76:4c:9d:d1:ae:18:d5:fa:10:99:5f:20:b0:3a:57:f8:50:8a:
        df:c7:e2:ba:33:c8:87:51:56:ec:ad:e5:79:0b:37:6c:0a:b1:
        12:b1:fc:30:fb:dd:9b:d3:6e:14:a3:8b:9d:aa:b2:37:c9:19:
        89:bb:f1:fa:dc:87:51:08:5b:26:79:9a:36:5f:50:3c:9c:04:
        a4:c1:9d:05:7b:0b:11:c8:82:4c:23:b9:80:48:6c:d8:c4:75:
        2b:81:8b:f6:11:25:66:13:25:62:f4:9f:fe:b7:fa:dd:35:8c:
        d0:df:c4:72:af:e5:11:73:03:dc:7b:4c:82:0e:c6:c1:64:63:
        60:be:7e:a9:06:fc:89:f7:c5:5b:54:06:70:44:f4:7c:d0:bd:
        e3:a1:01:0b:54:3e:4e:dd:37:7d:7c:df:3d:b6:ac:1b:32:0f:
        66:30:39:59:8f:f2:06:2d:47:8b:50:a1:c8:0c:5f:0b:f4:92:
        41:5d:b1:42:4f:97:41:d2:31:2a:f3:f6:88:24:12:04:2d:8b:
        72:b9:82:6c:7f:93:40:d5:72:e9:7b:76:d9:31:c3:0e:d2:e6:
        62:3d:6d:7f:8f:20:58:6b:5d:a0:97:c7:d1:f9:71:a5:5c:00:
        b0:64:9a:5f:88:25:af:77:79:8b:74:61:a2:26:1f:7c:2d:b2:
        37:1b:0c:aa:c4:04:f4:e2:af:a2:72:41:70:20:ba:5a:4e:8d:
        32:02:10:0a:dd:85:7e:1b:fb:97:91:06:f1:9c:dc:68:1f:4c:
        bb:49:da:1e:e2:4a:78:26:f9:bf:05:bb:06:dd:d3:c2:3d:02:
        40:bd:e5:8a:d4:d4:3b:3e:b1:44:72:a5:31:4f:ee:44:68:5b:
        78:93:cf:aa:96:2b:0b:cc:bf:e9:41:53:b1:47:fe:d1:41:45:
        3f:43:ef:df:c4:57:1d:d9:c5:9a:dc:d3:6f:02:51:83:98:d6:
        4a:69:ee:89:9f:f7:0c:06:37:cc:bd:64:f9:e6:79:fc:08:4a:
        18:c1:03:de:3a:01:92:22
-----BEGIN CERTIFICATE-----
MIIEBTCCAe2gAwIBAgIESZYC0jANBgkqhkiG9w0BAQsFADAZMRcwFQYDVQQDDA5j
YS5leGFtcGxlLmNvbTAeFw0yMzA4MTYwNjM3NThaFw0yNDA4MTUwNjM3NThaMBsx
GTAXBgNVBAMMEHRlc3QuZXhhbXBsZS5jb20wggEiMA0GCSqGSIb3DQEBAQUAA4IB
DwAwggEKAoIBAQDNjvu0THcrLxIQAgjyROnOWLbwvkFMHWp8h4hFulnldQgtpM2T
vZehexPtjTv/f5yMqYBACVXmNvLCTfD7UKxM+Evnc3v+zt7FdJ+XoCgwSQ7734m/
p4ofB/388zF8HURMGY/sMlajZ5EvPLTiBGnnzt7AdGXff7gVlYpds4BvsNONoXBg
A8TqChxPUSpi0MlhfYmNGoKDp94dWoJJpUT9f7+alM1B4JMPLVk+ib6R0bboH8Dz
6uD2RrazgMQYQFfqeElj8uwk0aGD/LRK73O8U0GBsw7JuIZK3xol+CQjhPdOA6+1
K0L7twNMjjQ+Xvk7lhWJuU4zJQYEgXopswtpAgMBAAGjUzBRMB0GA1UdDgQWBBRZ
Qq/GWmE0hbhTSk5rHf1D73XiRjAfBgNVHSMEGDAWgBRZQq/GWmE0hbhTSk5rHf1D
73XiRjAPBgNVHRMBAf8EBTADAQH/MA0GCSqGSIb3DQEBCwUAA4ICAQAw52AwuLVL
Zx/2RYQ+16uhPUpBY1uTAEok9AfOGJCHuhGxRqEPAH8vwsCOMoowljV73sy8/fJB
72NDof1WV8cTNTAojtn+cpijom10qLd+qkU5Wkp6uDzxRRef0vCYtYPoWbiIDSWP
PGTZhYc5W4uWeGw8gLA7Nwfrx2BkeZR2TJ3RrhjV+hCZXyCwOlf4UIrfx+K6M8iH
UVbsreV5CzdsCrESsfww+92b024Uo4udqrI3yRmJu/H63IdRCFsmeZo2X1A8nASk
wZ0FewsRyIJMI7mASGzYxHUrgYv2ESVmEyVi9J/+t/rdNYzQ38Ryr+URcwPce0yC
DsbBZGNgvn6pBvyJ98VbVAZwRPR80L3joQELVD5O3Td9fN89tqwbMg9mMDlZj/IG
LUeLUKHIDF8L9JJBXbFCT5dB0jEq8/aIJBIELYtyuYJsf5NA1XLpe3bZMcMO0uZi
PW1/jyBYa12gl8fR+XGlXACwZJpfiCWvd3mLdGGiJh98LbI3GwyqxAT04q+ickFw
ILpaTo0yAhAK3YV+G/uXkQbxnNxoH0y7Sdoe4kp4Jvm/BbsG3dPCPQJAveWK1NQ7
PrFEcqUxT+5EaFt4k8+qlisLzL/pQVOxR/7RQUU/Q+/fxFcd2cWa3NNvAlGDmNZK
ae6Jn/cMBjfMvWT55nn8CEoYwQPeOgGSIg==
-----END CERTIFICATE-----
