Certificate:
    Data:
        Version: 1 (0x0)
        Serial Number:
            6e:85:60:a6:25:13:88:a4:b0:8f:df:cb:95:53:29:f5:dc:b3:cb:b9
        Signature Algorithm: sha256WithRSAEncryption
        Issuer: CN = ca.example.com
        Validity
            Not Before: Aug 16 06:38:04 2023 GMT
            Not After : Sep 15 06:38:04 2023 GMT
        Subject: CN = b.example.com
        Subject Public Key Info:
            Public Key Algorithm: rsaEncryption
                Public-Key: (4096 bit)
                Modulus:
                    00:c4:68:bd:ea:e5:9d:59:b4:45:d6:49:53:83:ee:
                    16:fa:d6:a4:e8:ff:37:24:1a:70:6b:d0:17:ab:e3:
                    82:eb:2d:6c:f6:43:6f:96:8b:66:d8:dc:b2:cb:12:
                    e3:2c:77:53:18:a9:7d:a2:10:e8:44:ed:9d:81:9b:
                    9e:23:cb:74:b4:f2:c9:89:d6:8b:69:1f:1f:af:07:
                    7f:cf:9e:15:97:fe:7d:d8:cf:a0:6f:d5:eb:79:63:
                    3a:dd:63:53:b5:3b:bd:76:f5:43:1d:fe:d7:12:0c:
                    8f:b4:16:67:67:2b:c3:c7:cf:f2:d5:96:9a:c6:b5:
                    ee:c0:2a:2a:61:af:16:1b:66:29:ed:7f:26:dd:15:
                    aa:85:ff:8c:ab:6b:25:e9:be:36:9c:d2:61:b6:db:
                    e5:32:1d:3b:d9:4c:d2:c1:ac:68:68:af:5b:0f:32:
                    a6:5d:c8:d7:3c:62:94:1e:2f:ab:fe:9c:af:02:7e:
                    02:f9:90:a7:57:b4:48:7e:64:41:ec:bb:f1:9b:8c:
                    ee:1b:b5:e6:5b:7c:19:1a:eb:0b:53:ea:a0:8c:65:
                    49:59:f2:4d:ff:41:cb:b9:2c:89:7a:d4:9a:b7:c3:
                    8a:f0:f6:cf:ac:2b:bd:be:ab:50:f8:84:04:70:72:
                    7a:2b:73:e5:c4:d6:b8:14:43:a1:09:77:d5:ca:1b:
                    6d:88:fd:d7:be:38:e4:5d:21:62:11:ef:1c:f3:a9:
                    53:60:c8:f9:de:1d:90:0b:fc:8d:88:fc:b2:ed:2a:
                    29:e0:ef:e2:9d:e4:24:a0:49:e0:d1:b5:c6:3e:a1:
                    c4:bf:d5:41:a6:b8:73:e8:f3:4f:da:16:d7:54:3a:
                    b5:43:08:6b:d7:da:03:6c:73:1e:8e:ac:b3:77:88:
                    80:83:04:c9:1f:02:4c:e6:9f:3f:12:46:83:8f:dc:
                    05:58:10:39:46:1f:00:fb:6e:96:ca:3c:97:c8:35:
                    0d:cd:c8:de:9d:74:32:0a:18:51:ce:29:09:c0:ca:
                    c9:30:e8:7e:be:15:a0:5e:39:d9:56:41:94:6c:0e:
                    ce:cf:60:a4:06:33:cb:de:fe:c5:46:e0:15:0d:f1:
                    23:85:f7:4b:76:c9:f8:2b:04:ed:bc:aa:72:2a:a4:
                    27:fe:a8:7d:25:56:9f:49:32:2c:25:c0:0d:7f:0f:
                    ff:8e:9c:0b:6b:1b:3a:2d:c7:3e:a4:c3:3c:34:f9:
                    40:98:28:0b:89:85:be:c7:02:f8:82:9c:58:c8:2e:
                    a5:96:fd:d8:a1:b5:b3:11:b6:be:3f:cf:95:8f:8c:
                    2f:a5:b6:ef:31:97:bc:14:4e:9e:fd:41:35:12:0d:
                    0f:8e:66:2b:2a:f4:93:d7:63:ba:36:32:db:9a:53:
                    bd:9d:f7
                Exponent: 65537 (0x10001)
    Signature Algorithm: sha256WithRSAEncryption
    Signature Value:
        1b:ef:62:82:1c:5f:55:d2:15:39:15:d1:34:c6:10:9d:14:a1:
        aa:eb:0d:af:ce:53:e8:56:bf:61:6d:c8:a3:b1:7a:b6:d6:34:
        82:fb:0f:f0:e9:0e:6f:1e:d2:19:6c:a1:97:b1:88:f8:8a:83:
        54:38:f1:ea:67:f7:7c:be:96:48:de:5d:52:3f:2b:65:91:95:
        14:36:15:46:08:5d:42:5e:6e:f8:02:97:c2:28:66:28:4d:d7:
        ae:9e:75:c3:22:4b:e0:6e:92:a2:3b:06:69:db:19:26:9c:72:
        7d:8a:b0:a8:b5:a4:2d:63:77:a4:f2:bd:b1:55:ba:25:3a:f5:
        e6:4c:d8:72:be:64:b5:05:21:dd:c2:46:d4:88:75:e7:b6:0e:
        7b:e8:14:c9:c5:66:0a:77:ac:ad:51:90:b6:cd:fd:44:f2:e9:
        21:46:f5:96:a9:7c:f2:3e:0e:f6:84:fa:0e:50:6e:6b:23:d9:
        ce:fb:a4:e8:49:f0:81:46:94:a2:f4:9f:82:d7:19:11:ae:fa:
        0e:c1:c5:04:60:e7:d3:1a:0c:1a:6d:f6:0f:74:1d:50:8a:a4:
        b6:0a:a4:15:fd:59:a0:6a:48:8e:f6:a3:f3:76:e0:22:59:1d:
        b8:de:f1:d8:78:6d:ba:ae:b9:3f:7a:9f:cb:db:68:cb:e0:11:
        7b:18:6c:2e:66:b3:6a:be:03:4b:29:47:3a:bc:64:bb:17:10:
        99:17:4a:a9:63:b2:c0:09:47:93:31:2f:d6:69:22:54:96:a2:
        6d:b3:dc:90:b7:2d:2a:1b:97:75:88:2c:8f:81:b2:e5:12:f7:
        7e:75:9b:41:9f:ec:0d:c0:e4:8a:14:1b:05:c0:a1:e8:b7:42:
        2e:b2:10:4f:39:80:9b:bd:2d:01:a1:cc:1c:1c:ed:fe:ef:aa:
        48:76:a7:bb:c8:5a:2d:5b:20:73:80:cf:e9:cf:1c:cc:df:b6:
        b9:1a:ff:a3:bb:28:b4:cb:8a:a0:89:7d:5d:31:25:83:0c:eb:
        b4:5f:be:5e:ce:97:f5:54:3f:40:27:c3:ad:2d:ab:51:c7:6b:
        51:c6:50:8e:93:84:30:6c:d8:ab:96:5b:33:81:d2:b7:9a:83:
        0f:13:1f:52:2f:ab:00:49:d9:fe:42:6c:d1:34:a1:7c:0d:18:
        56:e1:d4:c4:dd:94:06:4e:bb:13:62:26:4d:8a:20:b5:11:44:
        c1:67:91:67:e4:86:94:76:f7:b5:90:00:61:cf:e7:16:bd:29:
        f8:9a:89:cd:a7:1f:02:a6:48:17:4c:8b:4f:06:4d:76:f8:d5:
        7a:48:89:55:5c:f0:06:50:51:fe:a5:47:eb:84:8d:43:1b:eb:
        2f:18:aa:dc:fc:dc:09:8a
-----BEGIN CERTIFICATE-----
MIIEuDCCAqACFG6FYKYlE4iksI/fy5VTKfXcs8u5MA0GCSqGSIb3DQEBCwUAMBkx
FzAVBgNVBAMMDmNhLmV4YW1wbGUuY29tMB4XDTIzMDgxNjA2MzgwNFoXDTIzMDkx
NTA2MzgwNFowGDEWMBQGA1UEAwwNYi5leGFtcGxlLmNvbTCCAiIwDQYJKoZIhvcN
AQEBBQADggIPADCCAgoCggIBAMRoverlnVm0RdZJU4PuFvrWpOj/NyQacGvQF6vj
gustbPZDb5aLZtjcsssS4yx3UxipfaIQ6ETtnYGbniPLdLTyyYnWi2kfH68Hf8+e
FZf+fdjPoG/V63ljOt1jU7U7vXb1Qx3+1xIMj7QWZ2crw8fP8tWWmsa17sAqKmGv
FhtmKe1/Jt0VqoX/jKtrJem+NpzSYbbb5TIdO9lM0sGsaGivWw8ypl3I1zxilB4v
q/6crwJ+AvmQp1e0SH5kQey78ZuM7hu15lt8GRrrC1PqoIxlSVnyTf9By7ksiXrU
mrfDivD2z6wrvb6rUPiEBHByeitz5cTWuBRDoQl31cobbYj917445F0hYhHvHPOp
U2DI+d4dkAv8jYj8su0qKeDv4p3kJKBJ4NG1xj6hxL/VQaa4c+jzT9oW11Q6tUMI
a9faA2xzHo6ss3eIgIMEyR8CTOafPxJGg4/cBVgQOUYfAPtulso8l8g1Dc3I3p10
MgoYUc4pCcDKyTDofr4VoF452VZBlGwOzs9gpAYzy97+xUbgFQ3xI4X3S3bJ+CsE
7byqciqkJ/6ofSVWn0kyLCXADX8P/46cC2sbOi3HPqTDPDT5QJgoC4mFvscC+IKc
WMgupZb92KG1sxG2vj/PlY+ML6W27zGXvBROnv1BNRIND45mKyr0k9djujYy25pT
vZ33AgMBAAEwDQYJKoZIhvcNAQELBQADggIBABvvYoIcX1XSFTkV0TTGEJ0Uoarr
Da/OU+hWv2FtyKOxerbWNIL7D/DpDm8e0hlsoZexiPiKg1Q48epn93y+lkjeXVI/
K2WRlRQ2FUYIXUJebvgCl8IoZihN166edcMiS+BukqI7BmnbGSaccn2KsKi1pC1j
d6TyvbFVuiU69eZM2HK+ZLUFId3CRtSIdee2DnvoFMnFZgp3rK1RkLbN/UTy6SFG
9ZapfPI+DvaE+g5Qbmsj2c77pOhJ8IFGlKL0n4LXGRGu+g7BxQRg59MaDBpt9g90
HVCKpLYKpBX9WaBqSI72o/N24CJZHbje8dh4bbquuT96n8vbaMvgEXsYbC5ms2q+
A0spRzq8ZLsXEJkXSqljssAJR5MxL9ZpIlSWom2z3JC3LSobl3WILI+BsuUS9351
m0Gf7A3A5IoUGwXAoei3Qi6yEE85gJu9LQGhzBwc7f7vqkh2p7vIWi1bIHOAz+nP
HMzftrka/6O7KLTLiqCJfV0xJYMM67Rfvl7Ol/VUP0Anw60tq1HHa1HGUI6ThDBs
2KuWWzOB0reagw8TH1IvqwBJ2f5CbNE0oXwNGFbh1MTdlAZOuxNiJk2KILURRMFn
kWfkhpR297WQAGHP5xa9Kfiaic2nHwKmSBdMi08GTXb41XpIiVVc8AZQUf6lR+uE
jUMb6y8Yqtz83AmK
-----END CERTIFICATE-----
